LIBRARY MapControlCore.dll

EXPORTS
??0?$BackedType@V?$shared_ptr@VIManeuver@msnma@@@std@@@core@@QAE@$$QAV01@@Z
??0?$BackedType@V?$shared_ptr@VIManeuver@msnma@@@std@@@core@@QAE@ABV01@@Z
??0?$BackedType@V?$shared_ptr@VIManeuver@msnma@@@std@@@core@@QAE@XZ
??0?$BackedType@V?$shared_ptr@VIRoute@msnma@@@std@@@core@@QAE@$$QAV01@@Z
??0?$BackedType@V?$shared_ptr@VIRoute@msnma@@@std@@@core@@QAE@ABV01@@Z
??0?$BackedType@V?$shared_ptr@VIRoute@msnma@@@std@@@core@@QAE@XZ
??0?$BackedType@VGeoCoordinates@ngeo@Microsoft@@@core@@QAE@$$QAV01@@Z
??0?$BackedType@VGeoCoordinates@ngeo@Microsoft@@@core@@QAE@ABV01@@Z
??0?$BackedType@VGeoCoordinates@ngeo@Microsoft@@@core@@QAE@XZ
??0?$BackedType@VGeoRect@ngeo@Microsoft@@@core@@QAE@$$QAV01@@Z
??0?$BackedType@VGeoRect@ngeo@Microsoft@@@core@@QAE@ABV01@@Z
??0?$BackedType@VGeoRect@ngeo@Microsoft@@@core@@QAE@XZ
??0?$UIThreadCore@UIRouterUI@@@@IAE@XZ
??0DoublePoint@core@@QAE@NN@Z
??0GeoCoordinates@core@@QAE@ABV01@@Z
??0GeoCoordinates@core@@QAE@NN@Z
??0GeoCoordinates@core@@QAE@XZ
??0GeoRect@core@@QAE@ABV01@@Z
??0GeoRect@core@@QAE@NNNN@Z
??0GeoRect@core@@QAE@PBVGeoCoordinates@1@0@Z
??0GeoRect@core@@QAE@XZ
??0OperationAdapterCore@@IAE@XZ
??0OperationAdapterCore@@QAE@ABV0@@Z
??0QueryAdapterCore@@IAE@XZ
??0QueryAdapterCore@@QAE@ABV0@@Z
??0Route@core@@QAE@ABV01@@Z
??0Route@core@@QAE@XZ
??0RouteLeg@core@@QAE@ABV01@@Z
??0RouteLeg@core@@QAE@XZ
??0RouteManeuver@core@@QAE@ABV01@@Z
??0RouteManeuver@core@@QAE@XZ
??0RouterAdapterCore@@IAE@XZ
??1?$BackedType@V?$shared_ptr@VIManeuver@msnma@@@std@@@core@@QAE@XZ
??1?$BackedType@V?$shared_ptr@VIRoute@msnma@@@std@@@core@@QAE@XZ
??1?$BackedType@VGeoCoordinates@ngeo@Microsoft@@@core@@QAE@XZ
??1?$BackedType@VGeoRect@ngeo@Microsoft@@@core@@QAE@XZ
??1?$UIThreadCore@UIRouterUI@@@@MAE@XZ
??1GeoCoordinates@core@@UAE@XZ
??1GeoRect@core@@UAE@XZ
??1OperationAdapterCore@@MAE@XZ
??1QueryAdapterCore@@MAE@XZ
??1Route@core@@UAE@XZ
??1RouteLeg@core@@UAE@XZ
??1RouteManeuver@core@@UAE@XZ
??1RouterAdapterCore@@MAE@XZ
??4?$BackedType@V?$shared_ptr@VIManeuver@msnma@@@std@@@core@@QAEAAV01@$$QAV01@@Z
??4?$BackedType@V?$shared_ptr@VIManeuver@msnma@@@std@@@core@@QAEAAV01@ABV01@@Z
??4?$BackedType@V?$shared_ptr@VIRoute@msnma@@@std@@@core@@QAEAAV01@$$QAV01@@Z
??4?$BackedType@V?$shared_ptr@VIRoute@msnma@@@std@@@core@@QAEAAV01@ABV01@@Z
??4?$BackedType@VGeoCoordinates@ngeo@Microsoft@@@core@@QAEAAV01@$$QAV01@@Z
??4?$BackedType@VGeoCoordinates@ngeo@Microsoft@@@core@@QAEAAV01@ABV01@@Z
??4?$BackedType@VGeoRect@ngeo@Microsoft@@@core@@QAEAAV01@$$QAV01@@Z
??4?$BackedType@VGeoRect@ngeo@Microsoft@@@core@@QAEAAV01@ABV01@@Z
??4DoublePoint@core@@QAEAAU01@$$QAU01@@Z
??4DoublePoint@core@@QAEAAU01@ABU01@@Z
??4GeoCoordinates@core@@QAEAAV01@ABV01@@Z
??4GeoRect@core@@QAEAAV01@ABV01@@Z
??4OperationAdapterCore@@QAEAAV0@ABV0@@Z
??4QueryAdapterCore@@QAEAAV0@ABV0@@Z
??4Route@core@@QAEAAV01@ABV01@@Z
??4RouteLeg@core@@QAEAAV01@ABV01@@Z
??4RouteManeuver@core@@QAEAAV01@ABV01@@Z
??8DoublePoint@core@@QBE_NABU01@@Z
??8GeoCoordinates@core@@QBE_NABV01@@Z
??9DoublePoint@core@@QBE_NABU01@@Z
??9GeoCoordinates@core@@QBE_NABV01@@Z
??_7?$UIThreadCore@UIRouterUI@@@@6B@
??_7GeoCoordinates@core@@6B@
??_7GeoRect@core@@6B@
??_7OperationAdapterCore@@6B@
??_7QueryAdapterCore@@6B@
??_7Route@core@@6B@
??_7RouteLeg@core@@6B@
??_7RouteManeuver@core@@6B@
??_7RouterAdapterCore@@6B?$UIThreadCore@UIRouterUI@@@@@
??_7RouterAdapterCore@@6BIRouterUI@@@
??_7RouterAdapterCore@@6BQueryAdapterCore@@@
??_FDoublePoint@core@@QAEXXZ
?CalculateGeoRect@GeoRect@core@@SGJAAV?$vector@PAVGeoCoordinates@core@@V?$allocator@PAVGeoCoordinates@core@@@std@@@std@@PAV12@@Z
?CalculateRoute@RouterAdapterCore@@QAEJ$$QAV?$vector@URoutePoint@engine@@V?$allocator@URoutePoint@engine@@@std@@@std@@W4TravelMode@engine@@W4RouteOptimization@5@KIJPAURouteOptions@5@@Z
?CalculateRoute@RouterAdapterCore@@QAEJ$$QAV?$vector@URoutePoint@engine@@V?$allocator@URoutePoint@engine@@@std@@@std@@W4TravelMode@engine@@W4RouteOptimization@5@KIPAURouteOptions@5@@Z
?CalculateRoute@RouterAdapterCore@@QAEJABV?$vector@VGeoCoordinates@core@@V?$allocator@VGeoCoordinates@core@@@std@@@std@@W4TravelMode@engine@@W4RouteOptimization@5@KJPAURouteOptions@5@@Z
?CalculateRoute@RouterAdapterCore@@QAEJABV?$vector@VGeoCoordinates@core@@V?$allocator@VGeoCoordinates@core@@@std@@@std@@W4TravelMode@engine@@W4RouteOptimization@5@KPAURouteOptions@5@@Z
?Cancel@RouterAdapterCore@@QAEXXZ
?Contains@GeoRect@core@@QAE_NPBVGeoCoordinates@2@@Z
?CopyFrom@GeoRect@core@@QAEXABV12@@Z
?Deserialize@Route@core@@SGJAAV?$basic_istream@DU?$char_traits@D@std@@@std@@PAV12@@Z
?FormatString@RouteManeuver@core@@SAJAAV?$basic_string@GU?$char_traits@G@std@@V?$allocator@G@2@@std@@KZZ
?GetAlternateRoute@RouterAdapterCore@@QAEJIPAVRoute@core@@@Z
?GetAlternateRouteCount@RouterAdapterCore@@QAEJPAI@Z
?GetAlternateRouteViolatedOption@RouterAdapterCore@@QAEJIPAH@Z
?GetAltitude@GeoCoordinates@core@@UBENXZ
?GetBackingObject@?$BackedType@V?$shared_ptr@VIManeuver@msnma@@@std@@@core@@QBE?AV?$shared_ptr@VIManeuver@msnma@@@std@@XZ
?GetBackingObject@?$BackedType@V?$shared_ptr@VIRoute@msnma@@@std@@@core@@QBE?AV?$shared_ptr@VIRoute@msnma@@@std@@XZ
?GetBackingObjectRef@?$BackedType@VGeoCoordinates@ngeo@Microsoft@@@core@@IAEAAVGeoCoordinates@ngeo@Microsoft@@XZ
?GetBackingObjectRef@?$BackedType@VGeoCoordinates@ngeo@Microsoft@@@core@@QBEABVGeoCoordinates@ngeo@Microsoft@@XZ
?GetBackingObjectRef@?$BackedType@VGeoRect@ngeo@Microsoft@@@core@@IAEAAVGeoRect@ngeo@Microsoft@@XZ
?GetBackingObjectRef@?$BackedType@VGeoRect@ngeo@Microsoft@@@core@@QBEABVGeoRect@ngeo@Microsoft@@XZ
?GetBingAuthenticationKey@MapsSettings@@SGJPAV?$basic_string@GU?$char_traits@G@std@@V?$allocator@G@2@@std@@@Z
?GetBingMapsKey@MapsSettings@@SGJPAV?$basic_string@GU?$char_traits@G@std@@V?$allocator@G@2@@std@@@Z
?GetBottom@GeoRect@core@@QBENXZ
?GetBottomRight@GeoRect@core@@QBEJPAVGeoCoordinates@2@@Z
?GetBoundingBox@Route@core@@UBEJPAVGeoRect@2@@Z
?GetBoundingBox@RouteLeg@core@@UBEJPAVGeoRect@2@@Z
?GetCenter@GeoRect@core@@QBEJPAVGeoCoordinates@2@@Z
?GetConnectivityType@RouterAdapterCore@@QAEJPAW4ConnectivityType@engine@@@Z
?GetContinueFreewayInstruction@RouteManeuver@core@@ABEJAAV?$basic_string@GU?$char_traits@G@std@@V?$allocator@G@2@@std@@@Z
?GetCurrentRoadName@RouteManeuver@core@@QBEJAAV?$basic_string@GU?$char_traits@G@std@@V?$allocator@G@2@@std@@@Z
?GetDataAttribution@MapsSettings@@SGJPAV?$basic_string@GU?$char_traits@G@std@@V?$allocator@G@2@@std@@@Z
?GetDefaultCenterFromTimezone@MapsSettings@@SGPBVGeoCoordinates@core@@XZ
?GetDistanceInMetersFromPreviousManeuver@RouteManeuver@core@@QBEKXZ
?GetDistanceInMetersToNextManeuver@RouteManeuver@core@@QBEKXZ
?GetDurationInSeconds@Route@core@@UBEKXZ
?GetDurationInSeconds@RouteLeg@core@@UBEKXZ
?GetDurationWithoutTrafficInSeconds@Route@core@@UBEKXZ
?GetDurationWithoutTrafficInSeconds@RouteLeg@core@@UBEKXZ
?GetEnableManeuverCondensing@MapsSettings@@SG_NXZ
?GetEndInstruction@RouteManeuver@core@@ABEJAAV?$basic_string@GU?$char_traits@G@std@@V?$allocator@G@2@@std@@@Z
?GetEnterFreewayInstruction@RouteManeuver@core@@ABEJAAV?$basic_string@GU?$char_traits@G@std@@V?$allocator@G@2@@std@@@Z
?GetErrorCode@OperationAdapterCore@@QBEJXZ
?GetFreewayExitNumber@RouteManeuver@core@@QBEJAAV?$basic_string@GU?$char_traits@G@std@@V?$allocator@G@2@@std@@@Z
?GetGenerationNumber@?$UIThreadCore@UIRouterUI@@@@UBEJXZ
?GetGeometryCoordinates@Route@core@@UBEJKPAVGeoCoordinates@2@@Z
?GetGeometryCoordinates@RouteLeg@core@@UBEJKPAVGeoCoordinates@2@@Z
?GetGeometryCoordinatesCount@Route@core@@UBEKXZ
?GetGeometryCoordinatesCount@RouteLeg@core@@UBEKXZ
?GetGoStraightInstruction@RouteManeuver@core@@ABEJAAV?$basic_string@GU?$char_traits@G@std@@V?$allocator@G@2@@std@@@Z
?GetHeading@RouteManeuver@core@@QBE?AW4CompassHeading@2@XZ
?GetInflatedGeoRect@GeoRect@core@@QBE?AV12@XZ
?GetInstanceId@OperationAdapterCore@@QBEHXZ
?GetInstructionText@RouteManeuver@core@@QBEJAAV?$basic_string@GU?$char_traits@G@std@@V?$allocator@G@2@@std@@@Z
?GetInstructionTextFromBacking@RouteManeuver@core@@ABEJAAV?$basic_string@GU?$char_traits@G@std@@V?$allocator@G@2@@std@@0@Z
?GetInstructionWithTarget@RouteManeuver@core@@ABEJKAAV?$basic_string@GU?$char_traits@G@std@@V?$allocator@G@2@@std@@@Z
?GetInstructionWithTargetAndReplacement@RouteManeuver@core@@ABEJKAAV?$basic_string@GU?$char_traits@G@std@@V?$allocator@G@2@@std@@0@Z
?GetKeyValidationStatus@MapsSettings@@SGJPAH@Z
?GetLatitude@GeoCoordinates@core@@UBENXZ
?GetLeaveFreewayInstruction@RouteManeuver@core@@ABEJAAV?$basic_string@GU?$char_traits@G@std@@V?$allocator@G@2@@std@@0@Z
?GetLeft@GeoRect@core@@QBENXZ
?GetLeg@Route@core@@UBEJKPAVRouteLeg@2@@Z
?GetLegCount@Route@core@@UBEKXZ
?GetLengthInMeters@Route@core@@UBEKXZ
?GetLengthInMeters@RouteLeg@core@@UBEKXZ
?GetLimitNetworkUsage@MapsSettings@@SGJPA_N@Z
?GetLocaleMapConfiguration@MapsSettings@@SGJPAPAUILocaleMapConfiguration@@@Z
?GetLongitude@GeoCoordinates@core@@UBENXZ
?GetManeuver@RouteLeg@core@@UBEJKPAVRouteManeuver@2@@Z
?GetManeuverCount@RouteLeg@core@@UBEKXZ
?GetManeuverNotice@RouteManeuver@core@@QBEJPAH@Z
?GetManeuverType@RouteManeuver@core@@QBE?AW4RouteManeuverType@2@XZ
?GetManeuverWarningCount@RouteManeuver@core@@QBEKXZ
?GetManeuverWarnings@RouteManeuver@core@@QBEABVIItineraryWarning@msnma@@K@Z
?GetMaxLatitude@GeoCoordinates@core@@SGNXZ
?GetMaxLongitude@GeoCoordinates@core@@SGNXZ
?GetMinLatitude@GeoCoordinates@core@@SGNXZ
?GetMinLongitude@GeoCoordinates@core@@SGNXZ
?GetProgress@OperationAdapterCore@@QBEKXZ
?GetProvider@RouterAdapterCore@@QAEJPAW4Provider@engine@@@Z
?GetResultSqmId@OperationAdapterCore@@MBEKXZ
?GetResultSqmId@RouterAdapterCore@@UBEKXZ
?GetRight@GeoRect@core@@QBENXZ
?GetRoute@RouterAdapterCore@@QAEJPAVRoute@core@@@Z
?GetSnappedCompassHeading@RouteManeuver@core@@CG?AW4CompassHeading@2@K@Z
?GetStartCoordinates@RouteManeuver@core@@QBEJPAVGeoCoordinates@2@@Z
?GetStartInstruction@RouteManeuver@core@@ABEJAAV?$basic_string@GU?$char_traits@G@std@@V?$allocator@G@2@@std@@@Z
?GetStatus@QueryAdapterCore@@QBE?AW4QueryStatus@@XZ
?GetStopoverInstruction@RouteManeuver@core@@ABEJAAV?$basic_string@GU?$char_traits@G@std@@V?$allocator@G@2@@std@@@Z
?GetStringResource@RouteManeuver@core@@SGJKAAV?$basic_string@GU?$char_traits@G@std@@V?$allocator@G@2@@std@@@Z
?GetTakeFerryInstruction@RouteManeuver@core@@ABEJAAV?$basic_string@GU?$char_traits@G@std@@V?$allocator@G@2@@std@@@Z
?GetTargetRoadName@RouteManeuver@core@@QBEJAAV?$basic_string@GU?$char_traits@G@std@@V?$allocator@G@2@@std@@@Z
?GetTop@GeoRect@core@@QBENXZ
?GetTopLeft@GeoRect@core@@QBEJPAVGeoCoordinates@2@@Z
?GetTrafficCircleExitNumber@RouteManeuver@core@@QBEKXZ
?GetTrafficCircleInstruction@RouteManeuver@core@@ABEJAAV?$basic_string@GU?$char_traits@G@std@@V?$allocator@G@2@@std@@@Z
?GetTrafficCongestion@Route@core@@UBE?AW4TrafficCongestionType@IRoute@msnma@@XZ
?GetTrafficCongestion@RouteLeg@core@@UBE?AW4TrafficCongestionType@IRoute@msnma@@XZ
?GetTurnInstruction@RouteManeuver@core@@ABEJAAV?$basic_string@GU?$char_traits@G@std@@V?$allocator@G@2@@std@@@Z
?GetUndefinedInstruction@RouteManeuver@core@@ABEJAAV?$basic_string@GU?$char_traits@G@std@@V?$allocator@G@2@@std@@@Z
?GetUserGeoRegion@MapsSettings@@SGJPAPAUHSTRING__@@@Z
?GetUserGeoRegion@MapsSettings@@SGJPAV?$basic_string@GU?$char_traits@G@std@@V?$allocator@G@2@@std@@@Z
?GetUserGeoRegionAsThreeLetterCode@MapsSettings@@SGJPAV?$basic_string@GU?$char_traits@G@std@@V?$allocator@G@2@@std@@@Z
?GetUserPreferredUILanguage@MapsSettings@@SGJPAV?$basic_string@GU?$char_traits@G@std@@V?$allocator@G@2@@std@@@Z
?GetUserProfileLanguage@MapsSettings@@SGJPAV?$basic_string@GU?$char_traits@G@std@@V?$allocator@G@2@@std@@@Z
?GetUserProfileLanguages@MapsSettings@@SGJPAPAUHSTRING__@@@Z
?GetUserProfileLanguages@MapsSettings@@SGJPAV?$basic_string@GU?$char_traits@G@std@@V?$allocator@G@2@@std@@@Z
?GetUturnInstruction@RouteManeuver@core@@ABEJAAV?$basic_string@GU?$char_traits@G@std@@V?$allocator@G@2@@std@@@Z
?GetViolatedOptions@RouterAdapterCore@@QAEJPAH@Z
?IncrementGeneration@?$UIThreadCore@UIRouterUI@@@@IAEJXZ
?Initialize@?$UIThreadCore@UIRouterUI@@@@IAEJV?$unique_ptr@UIThreadSignal@@U?$destroy_delete@UIThreadSignal@@@@@std@@@Z
?Initialize@Route@core@@QAEJV?$shared_ptr@VIRoute@msnma@@@std@@@Z
?Initialize@RouteLeg@core@@AAEJV?$shared_ptr@VIRoute@msnma@@@std@@K@Z
?Initialize@RouteManeuver@core@@AAEJABV?$vector@V?$shared_ptr@VIManeuver@msnma@@@std@@V?$allocator@V?$shared_ptr@VIManeuver@msnma@@@std@@@2@@std@@H@Z
?InitializeGeometryCoordinates@RouteLeg@core@@AAEJXZ
?InitializeInstructionText@RouteManeuver@core@@ABEJAAV?$basic_string@GU?$char_traits@G@std@@V?$allocator@G@2@@std@@0@Z
?InitializeLegs@Route@core@@AAEJXZ
?InitializeManeuverCondensingContexts@RouteLeg@core@@AAEJ_N@Z
?InitializeManeuvers@RouteLeg@core@@AAEJXZ
?Intersects@GeoRect@core@@QAE_NPBV12@@Z
?IsChinaVariant@MapsSettings@@SG_NXZ
?IsDegenerate@GeoRect@core@@QBE_NXZ
?IsDeserialized@Route@core@@QBE_NXZ
?IsDispatchEnabled@?$UIThreadCore@UIRouterUI@@@@IAE_NXZ
?IsOldChinaRegKeySet@MapsSettings@@SG_NXZ
?IsValid@GeoCoordinates@core@@UBE_NXZ
?IsValid@GeoRect@core@@UBE_NXZ
?IsValid@Route@core@@QBE_NXZ
?IsValid@RouteLeg@core@@ABE_NXZ
?IsWatermarkEnabled@MapsSettings@@SG_NXZ
?OnRouteDone@RouterAdapterCore@@UAEXABURouteResult@engine@@@Z
?OnRouteProgress@RouterAdapterCore@@UAEXK@Z
?Post@?$UIThreadCore@UIRouterUI@@@@UAEXPAV?$TDispatchItem@UIRouterUI@@@@@Z
?ProcessDispatchQueue@?$UIThreadCore@UIRouterUI@@@@QAEXPAUIRouterUI@@@Z
?RegisterListener@SuspendResumeDispatcher@@SGJPAVISuspendResumeListener@@PA_N@Z
?ResetProgress@OperationAdapterCore@@IAEXXZ
?RestrictedAPIAccessCheck@ApiAccessCheck@@SGJXZ
?Serialize@Route@core@@QBEJAAV?$basic_ostream@DU?$char_traits@D@std@@@std@@@Z
?SetAltitude@GeoCoordinates@core@@UAEXN@Z
?SetBackingObject@?$BackedType@V?$shared_ptr@VIManeuver@msnma@@@std@@@core@@QAEXABV?$shared_ptr@VIManeuver@msnma@@@std@@@Z
?SetBackingObject@?$BackedType@V?$shared_ptr@VIRoute@msnma@@@std@@@core@@QAEXABV?$shared_ptr@VIRoute@msnma@@@std@@@Z
?SetBackingObject@?$BackedType@VGeoCoordinates@ngeo@Microsoft@@@core@@QAEXABVGeoCoordinates@ngeo@Microsoft@@@Z
?SetBackingObject@?$BackedType@VGeoRect@ngeo@Microsoft@@@core@@QAEXABVGeoRect@ngeo@Microsoft@@@Z
?SetBingAuthenticationKey@MapsSettings@@SGJABV?$basic_string@GU?$char_traits@G@std@@V?$allocator@G@2@@std@@@Z
?SetBingMapsKey@MapsSettings@@SGJABV?$basic_string@GU?$char_traits@G@std@@V?$allocator@G@2@@std@@@Z
?SetDispatchEnabled@?$UIThreadCore@UIRouterUI@@@@IAEX_N@Z
?SetEnableManeuverCondensing@MapsSettings@@SGX_N@Z
?SetErrorCode@OperationAdapterCore@@IAEXJ@Z
?SetInstanceId@OperationAdapterCore@@IAEXH@Z
?SetKeyValidationStatus@MapsSettings@@SGJH@Z
?SetLatitude@GeoCoordinates@core@@UAEXN@Z
?SetLimitNetworkUsage@MapsSettings@@SGJ_N@Z
?SetLongitude@GeoCoordinates@core@@UAEXN@Z
?SetProgress@OperationAdapterCore@@MAEXK@Z
?SetProgress@QueryAdapterCore@@MAEXK@Z
?SetStatus@QueryAdapterCore@@IAEXW4QueryStatus@@@Z
?UnregisterListener@SuspendResumeDispatcher@@SGXPAVISuspendResumeListener@@@Z
?WaitOnClose@MosThread@@SGXXZ
?_CoreInitialize@RouterAdapterCore@@IAEJHV?$unique_ptr@UIThreadSignal@@U?$destroy_delete@UIThreadSignal@@@@@std@@@Z
?_CoreUninitialize@RouterAdapterCore@@IAEXXZ
?c_DefaultDrivingRouteOptions@RouterAdapterCore@@2URouteOptions@engine@@B
?c_DefaultWalkingRouteOptions@RouterAdapterCore@@2URouteOptions@engine@@B
GetMosThreadInstance
GetMosThreadInstanceWithoutWait
IsDebugThread
IsMosThread
IsRenderThread
IsUIThread
SetDebugThreadId
SetRenderThreadId
SetUIThreadChecksEnabled
SetUIThreadId
WaitForMosThreadToClose
