LIBRARY mmcbase.dll

EXPORTS
??0?$CEventLock@UAppEvents@@@@QAE@XZ
??0CEventBuffer@@QAE@ABV0@@Z
??0CEventBuffer@@QAE@XZ
??0CMMCStrongReferences@@AAE@XZ
??0SC@mmcerror@@QAE@ABV01@@Z
??0SC@mmcerror@@QAE@J@Z
??1?$CEventLock@UAppEvents@@@@QAE@XZ
??1CEventBuffer@@QAE@XZ
??1SC@mmcerror@@QAE@XZ
??4?$CEventLock@UAppEvents@@@@QAEAAV0@ABV0@@Z
??4CEventBuffer@@QAEAAV0@ABV0@@Z
??4CMMCStrongReferences@@QAEAAV0@$$QAV0@@Z
??4CMMCStrongReferences@@QAEAAV0@ABV0@@Z
??4SC@mmcerror@@QAEAAV01@ABV01@@Z
??4SC@mmcerror@@QAEAAV01@J@Z
??7SC@mmcerror@@QBEHXZ
??8SC@mmcerror@@QBE_NABV01@@Z
??8SC@mmcerror@@QBE_NJ@Z
??9SC@mmcerror@@QBE_NABV01@@Z
??9SC@mmcerror@@QBE_NJ@Z
??BSC@mmcerror@@QBE_NXZ
??_FSC@mmcerror@@QAEXXZ
?AddItem@BookKeeping@@SGJAAVItemHandle@@@Z
?AddRef@CMMCStrongReferences@@SGKXZ
?AddSnapin@BookKeeping@@SGJPBGAAH@Z
?AddSnapinInterface@BookKeeping@@SG_NPAUIUnknown@@PBGAAH@Z
?CheckCallingThreadID@SC@mmcerror@@QAEXXZ
?Clear@SC@mmcerror@@QAEXXZ
?DumpWatsonTables@BookKeeping@@SGJPAXPBGH@Z
?EnableDiagnosticMessageBox@BookKeeping@@SG_N_N@Z
?ExceptionFilter@CMMCWatsonAPI@@SGJPAU_EXCEPTION_POINTERS@@H@Z
?FatalError@SC@mmcerror@@QBEXXZ
?FindAllSnapinUIThreads@BookKeeping@@SGJHPAPAKPAK@Z
?FindAllSnapinUIThreads@BookKeeping@@SGJPAPAKPAK@Z
?FindItem@BookKeeping@@SGPAVItemHandle@@PAX@Z
?FindSnapin@BookKeeping@@SGABVSnapinBookkeepingInfo@@H@Z
?FindSnapin@BookKeeping@@SGABVSnapinBookkeepingInfo@@PAUIUnknown@@@Z
?FindSnapin@BookKeeping@@SGABVSnapinBookkeepingInfo@@PBG@Z
?ForceException@CMMCWatsonAPI@@SGXH@Z
?FormatErrorIds@@YGXIVSC@mmcerror@@IPAG@Z
?FormatErrorShort@@YGXVSC@mmcerror@@IPAG@Z
?FormatErrorString@@YGXPBGVSC@mmcerror@@IPAGH@Z
?FromLastError@SC@mmcerror@@QAEAAV12@XZ
?FromMMC@SC@mmcerror@@QAEAAV12@J@Z
?FromWin32@SC@mmcerror@@QAEAAV12@J@Z
?FxSnapinException@BookKeeping@@SG_NHPBG000HPAUHWND__@@@Z
?GetCode@SC@mmcerror@@QBEJXZ
?GetErrorMessage@SC@mmcerror@@QBEXIPAG@Z
?GetFacility@SC@mmcerror@@ABE?AW4facility_type@12@XZ
?GetFunctionName@SC@mmcerror@@QBEPBGXZ
?GetHWnd@SC@mmcerror@@SGPAUHWND__@@XZ
?GetHelpFile@SC@mmcerror@@SGPBGXZ
?GetHelpID@SC@mmcerror@@QAEKXZ
?GetHinst@SC@mmcerror@@SGPAUHINSTANCE__@@XZ
?GetMainThreadID@SC@mmcerror@@SGKXZ
?GetModalHWND@SC@mmcerror@@SGPAUHWND__@@XZ
?GetNewSnapinInstanceId@BookKeeping@@SGHXZ
?GetSingletonObject@CMMCStrongReferences@@CGAAV1@XZ
?GetSnapinModuleName@BookKeeping@@SGPBGH@Z
?GetSnapinName@BookKeeping@@SGPBGH@Z
?GetSnapinName@SC@mmcerror@@QBEPBGXZ
?HrFromSc@@YGJABVSC@mmcerror@@@Z
?InitInstance@BookKeeping@@SGJXZ
?InterfaceFailure@BookKeeping@@SGXHPBG0@Z
?InterfaceMethodActivationContextException@BookKeeping@@SGXHPBG0KPAU_EXCEPTION_POINTERS@@@Z
?InterfaceMethodException@BookKeeping@@SGXHPBG0KPAU_EXCEPTION_POINTERS@@@Z
?InterfaceNotFound@BookKeeping@@SGXHPBG@Z
?InternalAddRef@CMMCStrongReferences@@AAEKXZ
?InternalLastRefReleased@CMMCStrongReferences@@AAE_NXZ
?InternalRelease@CMMCStrongReferences@@AAEKXZ
?InvalidInterface@BookKeeping@@SGXHPBG0@Z
?InvalidMMCInterface@BookKeeping@@SGXHPBG0@Z
?InvalidMMCInterfaceRelease@BookKeeping@@SGXHPBG0@Z
?IsError@SC@mmcerror@@QBE_NXZ
?IsLocked@CEventBuffer@@QAE_NXZ
?IsValid@ItemHandle@@SG_NPBV1@@Z
?LKResult2HRESULT@BookKeeping@@SGJJ@Z
?LastRefReleased@CMMCStrongReferences@@SG_NXZ
?Lock@CEventBuffer@@QAEXXZ
?MMCErrorBox@@YGHII@Z
?MMCErrorBox@@YGHIVSC@mmcerror@@I@Z
?MMCErrorBox@@YGHPBGI@Z
?MMCErrorBox@@YGHPBGVSC@mmcerror@@I@Z
?MMCErrorBox@@YGHVSC@mmcerror@@I@Z
?MMCInterfaceError@BookKeeping@@SGXHPBG0@Z
?MMCInterfaceLeak@BookKeeping@@SGXHPBG@Z
?MMCInterfaceMethodException@BookKeeping@@SGXHPBG0KPAU_EXCEPTION_POINTERS@@W4_SnapinError@1@@Z
?MMCNullInterface@BookKeeping@@SGXHPBG0@Z
?MakeSc@SC@mmcerror@@AAEXW4facility_type@12@J@Z
?RegisterSnapinInterfaceErrorHandler@BookKeeping@@SGP6G_NAAVSnapinBookkeepingInfo@@W4_SnapinError@1@PBG222KPAU_EXCEPTION_POINTERS@@@ZP6G_N012222K3@Z@Z
?RegisterThread@BookKeeping@@SGJHHKW4SnapinThreadFlags@1@@Z
?Release@CMMCStrongReferences@@SGKXZ
?ReleaseSnapinInterface@BookKeeping@@SGJPAUIUnknown@@H@Z
?RemoveItem@BookKeeping@@SGJPAX@Z
?SCODEFromSc@@YGJABVSC@mmcerror@@@Z
?ScEmitOrPostpone@CEventBuffer@@QAE?AVSC@mmcerror@@PAUIDispatch@@JPAVCComVariant@ATL@@H@Z
?ScFlushPostponed@CEventBuffer@@AAE?AVSC@mmcerror@@XZ
?ScFromMMC@@YG?AVSC@mmcerror@@J@Z
?ScGetConsoleEventDispatcher@CConsoleEventDispatcherProvider@@SG?AVSC@mmcerror@@AAPAVCConsoleEventDispatcher@@@Z
?ScSetConsoleEventDispatcher@CConsoleEventDispatcherProvider@@SG?AVSC@mmcerror@@PAVCConsoleEventDispatcher@@@Z
?SetFunctionName@SC@mmcerror@@QAEXPBG@Z
?SetHWnd@SC@mmcerror@@SGXPAUHWND__@@@Z
?SetHinst@SC@mmcerror@@SGXPAUHINSTANCE__@@@Z
?SetMainThreadID@SC@mmcerror@@SGXK@Z
?SetModalHWND@SC@mmcerror@@SGPAUHWND__@@PAU3@@Z
?SetSnapinName@SC@mmcerror@@QAEXPBG@Z
?Throw@SC@mmcerror@@QAEXJ@Z
?Throw@SC@mmcerror@@QAEXXZ
?ToHr@SC@mmcerror@@QBEJXZ
?TraceAndClear@SC@mmcerror@@QAEXXZ
?TraceError@@YGXPBGABVSC@mmcerror@@@Z
?TraceSnapinError@@YGXPBGABVSC@mmcerror@@@Z
?Trace_@SC@mmcerror@@QBEXXZ
?Unlock@CEventBuffer@@QAEXXZ
?UnregisterAllSnapinInstanceThreads@BookKeeping@@SGJH@Z
?UnregisterThread@BookKeeping@@SGJHK@Z
?s_CallDepth@SC@mmcerror@@0IA
?s_dwMainThreadID@SC@mmcerror@@0KA
?s_hInst@SC@mmcerror@@0PAUHINSTANCE__@@A
?s_hWnd@SC@mmcerror@@0PAUHWND__@@A
?s_hWndModal@SC@mmcerror@@0PAUHWND__@@A
?s_pDispatcher@CConsoleEventDispatcherProvider@@0PAVCConsoleEventDispatcher@@A
EnterModalLoop
GetComObjectEventSource
GetEventBuffer
GetStringModule
InsideModalLoop
LeaveModalLoop
LoadStandardOverlays
MMCUpdateRegistry
MMC_PickIconDlg
ReportFxSnapinException
