LIBRARY msdart.dll

EXPORTS
??0CCritSec@@QAE@XZ
??0CDoubleList@@QAE@XZ
??0CEXAutoBackupFile@@QAE@PBG@Z
??0CEXAutoBackupFile@@QAE@XZ
??0CExFileOperation@@QAE@XZ
??0CFakeLock@@QAE@XZ
??0CLKRHashTable@@QAE@PBDP6G?BKPBX@ZP6GKK@ZP6G_NKK@ZP6GX1H@ZNKK_N6PAVCLKRhashAllocator@@@Z
??0CLKRHashTableStats@@QAE@XZ
??0CLKRHashTable_Iterator@@IAE@PAVCLKRHashTable@@F@Z
??0CLKRHashTable_Iterator@@QAE@$$QAV0@@Z
??0CLKRHashTable_Iterator@@QAE@ABV0@@Z
??0CLKRHashTable_Iterator@@QAE@XZ
??0CLKRLinearHashTable@@AAE@PBDP6G?BKPBX@ZP6GKK@ZP6G_NKK@ZP6GX1H@ZNKPAVCLKRHashTable@@_N7PAVCLKRhashAllocator@@@Z
??0CLKRLinearHashTable@@QAE@PBDP6G?BKPBX@ZP6GKK@ZP6G_NKK@ZP6GX1H@ZNKK_N6PAVCLKRhashAllocator@@@Z
??0CLKRLinearHashTable_Iterator@@IAE@PAVCLKRLinearHashTable@@PAVCNodeClump@@KF@Z
??0CLKRLinearHashTable_Iterator@@QAE@ABV0@@Z
??0CLKRLinearHashTable_Iterator@@QAE@XZ
??0CLKRhashDefaultAllocator@@QAE@XZ
??0CLockedDoubleList@@QAE@$$QAV0@@Z
??0CLockedDoubleList@@QAE@ABV0@@Z
??0CLockedDoubleList@@QAE@XZ
??0CLockedSingleList@@QAE@$$QAV0@@Z
??0CLockedSingleList@@QAE@ABV0@@Z
??0CLockedSingleList@@QAE@XZ
??0CReaderWriterLock2@@QAE@ABV0@@Z
??0CReaderWriterLock2@@QAE@XZ
??0CReaderWriterLock3@@QAE@ABV0@@Z
??0CReaderWriterLock3@@QAE@XZ
??0CReaderWriterLock3AR@@QAE@ABV0@@Z
??0CReaderWriterLock3AR@@QAE@XZ
??0CReaderWriterLock@@QAE@ABV0@@Z
??0CReaderWriterLock@@QAE@XZ
??0CSingleList@@QAE@XZ
??0CSmallSpinLock@@QAE@ABV0@@Z
??0CSmallSpinLock@@QAE@XZ
??0CSpinLock@@QAE@ABV0@@Z
??0CSpinLock@@QAE@XZ
??1CCritSec@@QAE@XZ
??1CDoubleList@@QAE@XZ
??1CEXAutoBackupFile@@QAE@XZ
??1CExFileOperation@@QAE@XZ
??1CFakeLock@@QAE@XZ
??1CLKRHashTable@@QAE@XZ
??1CLKRHashTable_Iterator@@QAE@XZ
??1CLKRLinearHashTable@@QAE@XZ
??1CLKRLinearHashTable_Iterator@@QAE@XZ
??1CLockedDoubleList@@QAE@XZ
??1CLockedSingleList@@QAE@XZ
??1CReaderWriterLock2@@QAE@XZ
??1CReaderWriterLock3@@QAE@XZ
??1CReaderWriterLock3AR@@QAE@XZ
??1CReaderWriterLock@@QAE@XZ
??1CSingleList@@QAE@XZ
??1CSmallSpinLock@@QAE@XZ
??1CSpinLock@@QAE@XZ
??4?$CLockBase@$00$00$02$00$02$01@@QAEAAV0@$$QAV0@@Z
??4?$CLockBase@$00$00$02$00$02$01@@QAEAAV0@ABV0@@Z
??4?$CLockBase@$01$00$00$00$02$01@@QAEAAV0@$$QAV0@@Z
??4?$CLockBase@$01$00$00$00$02$01@@QAEAAV0@ABV0@@Z
??4?$CLockBase@$02$00$00$00$00$00@@QAEAAV0@$$QAV0@@Z
??4?$CLockBase@$02$00$00$00$00$00@@QAEAAV0@ABV0@@Z
??4?$CLockBase@$03$00$00$01$02$02@@QAEAAV0@$$QAV0@@Z
??4?$CLockBase@$03$00$00$01$02$02@@QAEAAV0@ABV0@@Z
??4?$CLockBase@$04$01$01$00$02$01@@QAEAAV0@$$QAV0@@Z
??4?$CLockBase@$04$01$01$00$02$01@@QAEAAV0@ABV0@@Z
??4?$CLockBase@$05$01$01$00$02$01@@QAEAAV0@$$QAV0@@Z
??4?$CLockBase@$05$01$01$00$02$01@@QAEAAV0@ABV0@@Z
??4?$CLockBase@$06$01$00$00$02$01@@QAEAAV0@$$QAV0@@Z
??4?$CLockBase@$06$01$00$00$02$01@@QAEAAV0@ABV0@@Z
??4?$CLockBase@$07$01$00$00$02$01@@QAEAAV0@$$QAV0@@Z
??4?$CLockBase@$07$01$00$00$02$01@@QAEAAV0@ABV0@@Z
??4CCritSec@@QAEAAV0@ABV0@@Z
??4CDoubleList@@QAEAAV0@ABV0@@Z
??4CEXAutoBackupFile@@QAEAAV0@ABV0@@Z
??4CExFileOperation@@QAEAAV0@ABV0@@Z
??4CFakeLock@@QAEAAV0@ABV0@@Z
??4CLKRHashTableStats@@QAEAAV0@$$QAV0@@Z
??4CLKRHashTableStats@@QAEAAV0@ABV0@@Z
??4CLKRHashTable_Iterator@@QAEAAV0@$$QAV0@@Z
??4CLKRHashTable_Iterator@@QAEAAV0@ABV0@@Z
??4CLKRLinearHashTable_Iterator@@QAEAAV0@ABV0@@Z
??4CLockedDoubleList@@QAEAAV0@$$QAV0@@Z
??4CLockedDoubleList@@QAEAAV0@ABV0@@Z
??4CLockedSingleList@@QAEAAV0@$$QAV0@@Z
??4CLockedSingleList@@QAEAAV0@ABV0@@Z
??4CMdVersionInfo@@QAEAAV0@$$QAV0@@Z
??4CMdVersionInfo@@QAEAAV0@ABV0@@Z
??4CReaderWriterLock2@@QAEAAV0@ABV0@@Z
??4CReaderWriterLock3@@QAEAAV0@ABV0@@Z
??4CReaderWriterLock3AR@@QAEAAV0@ABV0@@Z
??4CReaderWriterLock@@QAEAAV0@ABV0@@Z
??4CSingleList@@QAEAAV0@ABV0@@Z
??4CSmallSpinLock@@QAEAAV0@ABV0@@Z
??4CSpinLock@@QAEAAV0@ABV0@@Z
??8CLKRHashTable_Iterator@@QBE_NABV0@@Z
??8CLKRLinearHashTable_Iterator@@QBE_NABV0@@Z
??9CLKRHashTable_Iterator@@QBE_NABV0@@Z
??9CLKRLinearHashTable_Iterator@@QBE_NABV0@@Z
??_7CLKRhashDefaultAllocator@@6B@
?Alloc@CLKRhashDefaultAllocator@@UAEPAXIW4Type@CLKRhashAllocator@@@Z
?Apply@CLKRHashTable@@QAEKP6G?AW4LK_ACTION@@PBXPAX@Z1W4LK_LOCKTYPE@@@Z
?Apply@CLKRLinearHashTable@@QAEKP6G?AW4LK_ACTION@@PBXPAX@Z1W4LK_LOCKTYPE@@@Z
?ApplyIf@CLKRHashTable@@QAEKP6G?AW4LK_PREDICATE@@PBXPAX@ZP6G?AW4LK_ACTION@@01@Z1W4LK_LOCKTYPE@@@Z
?ApplyIf@CLKRLinearHashTable@@QAEKP6G?AW4LK_PREDICATE@@PBXPAX@ZP6G?AW4LK_ACTION@@01@Z1W4LK_LOCKTYPE@@@Z
?BackupFile@CEXAutoBackupFile@@QAEJPBG@Z
?Begin@CLKRHashTable@@QAE?AVCLKRHashTable_Iterator@@XZ
?Begin@CLKRLinearHashTable@@QAE?AVCLKRLinearHashTable_Iterator@@XZ
?BucketIndex@CLKRHashTableStats@@SGJJ@Z
?BucketSize@CLKRHashTableStats@@SGJJ@Z
?BucketSizes@CLKRHashTableStats@@SGPBJXZ
?CheckTable@CLKRHashTable@@QBEHXZ
?CheckTable@CLKRLinearHashTable@@QBEHXZ
?ClassName@CCritSec@@SGPBGXZ
?ClassName@CFakeLock@@SGPBGXZ
?ClassName@CLKRHashTable@@SGPBGXZ
?ClassName@CLKRLinearHashTable@@SGPBGXZ
?ClassName@CLKRhashDefaultAllocator@@UAEPBGXZ
?ClassName@CReaderWriterLock2@@SGPBGXZ
?ClassName@CReaderWriterLock3@@SGPBGXZ
?ClassName@CReaderWriterLock3AR@@SGPBGXZ
?ClassName@CReaderWriterLock@@SGPBGXZ
?ClassName@CSmallSpinLock@@SGPBGXZ
?ClassName@CSpinLock@@SGPBGXZ
?Clear@CLKRHashTable@@QAEXXZ
?Clear@CLKRLinearHashTable@@QAEXXZ
?ConvertExclusiveToShared@CCritSec@@QAEXXZ
?ConvertExclusiveToShared@CFakeLock@@QAEXXZ
?ConvertExclusiveToShared@CLKRHashTable@@QBEXXZ
?ConvertExclusiveToShared@CLKRLinearHashTable@@QBEXXZ
?ConvertExclusiveToShared@CReaderWriterLock2@@QAEXXZ
?ConvertExclusiveToShared@CReaderWriterLock3@@QAEXXZ
?ConvertExclusiveToShared@CReaderWriterLock3AR@@QAEXXZ
?ConvertExclusiveToShared@CReaderWriterLock@@QAEXXZ
?ConvertExclusiveToShared@CSmallSpinLock@@QAEXXZ
?ConvertExclusiveToShared@CSpinLock@@QAEXXZ
?ConvertSharedToExclusive@CCritSec@@QAEXXZ
?ConvertSharedToExclusive@CFakeLock@@QAEXXZ
?ConvertSharedToExclusive@CLKRHashTable@@QBEXXZ
?ConvertSharedToExclusive@CLKRLinearHashTable@@QBEXXZ
?ConvertSharedToExclusive@CReaderWriterLock2@@QAEXXZ
?ConvertSharedToExclusive@CReaderWriterLock3@@QAEXXZ
?ConvertSharedToExclusive@CReaderWriterLock3AR@@QAEXXZ
?ConvertSharedToExclusive@CReaderWriterLock@@QAEXXZ
?ConvertSharedToExclusive@CSmallSpinLock@@QAEXXZ
?ConvertSharedToExclusive@CSpinLock@@QAEXXZ
?CreateHolder@@YGJPAUIGPDispenser@@HIPAPAUIGPHolder@@@Z
?DeleteIf@CLKRHashTable@@QAEKP6G?AW4LK_PREDICATE@@PBXPAX@Z1@Z
?DeleteIf@CLKRLinearHashTable@@QAEKP6G?AW4LK_PREDICATE@@PBXPAX@Z1@Z
?DeleteKey@CLKRHashTable@@QAE?AW4LK_RETCODE@@K@Z
?DeleteKey@CLKRLinearHashTable@@QAE?AW4LK_RETCODE@@K@Z
?DeleteRecord@CLKRHashTable@@QAE?AW4LK_RETCODE@@PBX@Z
?DeleteRecord@CLKRLinearHashTable@@QAE?AW4LK_RETCODE@@PBX@Z
?End@CLKRHashTable@@QAE?AVCLKRHashTable_Iterator@@XZ
?End@CLKRLinearHashTable@@QAE?AVCLKRLinearHashTable_Iterator@@XZ
?EqualRange@CLKRHashTable@@QAE_NKAAVCLKRHashTable_Iterator@@0@Z
?EqualRange@CLKRLinearHashTable@@QAE_NKAAVCLKRLinearHashTable_Iterator@@0@Z
?Erase@CLKRHashTable@@QAE_NAAVCLKRHashTable_Iterator@@0@Z
?Erase@CLKRHashTable@@QAE_NAAVCLKRHashTable_Iterator@@@Z
?Erase@CLKRLinearHashTable@@QAE_NAAVCLKRLinearHashTable_Iterator@@0@Z
?Erase@CLKRLinearHashTable@@QAE_NAAVCLKRLinearHashTable_Iterator@@@Z
?FOCopyFile@CExFileOperation@@QAEJPBG0H@Z
?FOCopyFileDACLS@CExFileOperation@@QAEJPBG0@Z
?FODeleteFile@CExFileOperation@@QAEJPBG@Z
?FOMoveFile@CExFileOperation@@QAEJPBG0@Z
?FOReplaceFile@CExFileOperation@@QAEJPBG0@Z
?Find@CLKRHashTable@@QAE_NKAAVCLKRHashTable_Iterator@@@Z
?Find@CLKRLinearHashTable@@QAE_NKAAVCLKRLinearHashTable_Iterator@@@Z
?FindKey@CLKRHashTable@@QBE?AW4LK_RETCODE@@KPAPBX@Z
?FindKey@CLKRLinearHashTable@@QBE?AW4LK_RETCODE@@KPAPBX@Z
?FindRecord@CLKRHashTable@@QBE?AW4LK_RETCODE@@PBX@Z
?FindRecord@CLKRLinearHashTable@@QBE?AW4LK_RETCODE@@PBX@Z
?First@CDoubleList@@QBEQAVCListEntry@@XZ
?First@CLockedDoubleList@@QAEQAVCListEntry@@XZ
?Free@CLKRhashDefaultAllocator@@UAE_NPAXW4Type@CLKRhashAllocator@@@Z
?GetBackupFile@CEXAutoBackupFile@@QAEHPAPAG@Z
?GetBucketLockSpinCount@CLKRHashTable@@QBEGXZ
?GetBucketLockSpinCount@CLKRLinearHashTable@@QBEGXZ
?GetDefaultSpinAdjustmentFactor@CCritSec@@SGNXZ
?GetDefaultSpinAdjustmentFactor@CFakeLock@@SGNXZ
?GetDefaultSpinAdjustmentFactor@CReaderWriterLock2@@SGNXZ
?GetDefaultSpinAdjustmentFactor@CReaderWriterLock3@@SGNXZ
?GetDefaultSpinAdjustmentFactor@CReaderWriterLock3AR@@SGNXZ
?GetDefaultSpinAdjustmentFactor@CReaderWriterLock@@SGNXZ
?GetDefaultSpinAdjustmentFactor@CSmallSpinLock@@SGNXZ
?GetDefaultSpinAdjustmentFactor@CSpinLock@@SGNXZ
?GetDefaultSpinCount@CCritSec@@SGGXZ
?GetDefaultSpinCount@CFakeLock@@SGGXZ
?GetDefaultSpinCount@CReaderWriterLock2@@SGGXZ
?GetDefaultSpinCount@CReaderWriterLock3@@SGGXZ
?GetDefaultSpinCount@CReaderWriterLock3AR@@SGGXZ
?GetDefaultSpinCount@CReaderWriterLock@@SGGXZ
?GetDefaultSpinCount@CSmallSpinLock@@SGGXZ
?GetDefaultSpinCount@CSpinLock@@SGGXZ
?GetSpinCount@CCritSec@@QBEGXZ
?GetSpinCount@CFakeLock@@QBEGXZ
?GetSpinCount@CReaderWriterLock2@@QBEGXZ
?GetSpinCount@CReaderWriterLock3@@QBEGXZ
?GetSpinCount@CReaderWriterLock3AR@@QBEGXZ
?GetSpinCount@CReaderWriterLock@@QBEGXZ
?GetSpinCount@CSmallSpinLock@@QBEGXZ
?GetSpinCount@CSpinLock@@QBEGXZ
?GetStatistics@CLKRHashTable@@QBE?AVCLKRHashTableStats@@XZ
?GetStatistics@CLKRLinearHashTable@@QBE?AVCLKRHashTableStats@@XZ
?GetTableLockSpinCount@CLKRHashTable@@QBEGXZ
?GetTableLockSpinCount@CLKRLinearHashTable@@QBEGXZ
?GetVersionExW@CMdVersionInfo@@SAHPAU_OSVERSIONINFOW@@@Z
?HeadNode@CDoubleList@@QBEQBVCListEntry@@XZ
?HeadNode@CLockedDoubleList@@QBEQBVCListEntry@@XZ
?Increment@CLKRHashTable_Iterator@@QAE_NXZ
?Increment@CLKRLinearHashTable_Iterator@@QAE_NXZ
?InitializeVersionInfo@CMdVersionInfo@@CAHXZ
?Insert@CLKRHashTable@@QAE_NPBXAAVCLKRHashTable_Iterator@@_N@Z
?Insert@CLKRLinearHashTable@@QAE_NPBXAAVCLKRLinearHashTable_Iterator@@_N@Z
?InsertHead@CDoubleList@@QAEXQAVCListEntry@@@Z
?InsertHead@CLockedDoubleList@@QAEXQAVCListEntry@@@Z
?InsertRecord@CLKRHashTable@@QAE?AW4LK_RETCODE@@PBX_NPAPBX@Z
?InsertRecord@CLKRLinearHashTable@@QAE?AW4LK_RETCODE@@PBX_NPAPBX@Z
?InsertTail@CDoubleList@@QAEXQAVCListEntry@@@Z
?InsertTail@CLockedDoubleList@@QAEXQAVCListEntry@@@Z
?IsEmpty@CDoubleList@@QBE_NXZ
?IsEmpty@CLockedDoubleList@@QBE_NXZ
?IsEmpty@CLockedSingleList@@QBE_NXZ
?IsEmpty@CSingleList@@QBE_NXZ
?IsLocked@CLockedDoubleList@@QBE_NXZ
?IsLocked@CLockedSingleList@@QBE_NXZ
?IsMillnm@CMdVersionInfo@@SAHXZ
?IsReadLocked@CCritSec@@QBE_NXZ
?IsReadLocked@CFakeLock@@QBE_NXZ
?IsReadLocked@CLKRHashTable@@QBE_NXZ
?IsReadLocked@CLKRLinearHashTable@@QBE_NXZ
?IsReadLocked@CReaderWriterLock2@@QBE_NXZ
?IsReadLocked@CReaderWriterLock3@@QBE_NXZ
?IsReadLocked@CReaderWriterLock3AR@@QBE_NXZ
?IsReadLocked@CReaderWriterLock@@QBE_NXZ
?IsReadLocked@CSmallSpinLock@@QBE_NXZ
?IsReadLocked@CSpinLock@@QBE_NXZ
?IsReadUnlocked@CCritSec@@QBE_NXZ
?IsReadUnlocked@CFakeLock@@QBE_NXZ
?IsReadUnlocked@CLKRHashTable@@QBE_NXZ
?IsReadUnlocked@CLKRLinearHashTable@@QBE_NXZ
?IsReadUnlocked@CReaderWriterLock2@@QBE_NXZ
?IsReadUnlocked@CReaderWriterLock3@@QBE_NXZ
?IsReadUnlocked@CReaderWriterLock3AR@@QBE_NXZ
?IsReadUnlocked@CReaderWriterLock@@QBE_NXZ
?IsReadUnlocked@CSmallSpinLock@@QBE_NXZ
?IsReadUnlocked@CSpinLock@@QBE_NXZ
?IsUnlocked@CLockedDoubleList@@QBE_NXZ
?IsUnlocked@CLockedSingleList@@QBE_NXZ
?IsUsable@CLKRHashTable@@QBE_NXZ
?IsUsable@CLKRLinearHashTable@@QBE_NXZ
?IsValid@CLKRHashTable@@QBE_NXZ
?IsValid@CLKRHashTable_Iterator@@QBE_NXZ
?IsValid@CLKRLinearHashTable@@QBE_NXZ
?IsValid@CLKRLinearHashTable_Iterator@@QBE_NXZ
?IsWin2k@CMdVersionInfo@@SAHXZ
?IsWin2korLater@CMdVersionInfo@@SAHXZ
?IsWin95@CMdVersionInfo@@SAHXZ
?IsWin98@CMdVersionInfo@@SAHXZ
?IsWin98orLater@CMdVersionInfo@@SAHXZ
?IsWin9x@CMdVersionInfo@@SAHXZ
?IsWinNT4@CMdVersionInfo@@SAHXZ
?IsWinNT@CMdVersionInfo@@SAHXZ
?IsWinNt4orLater@CMdVersionInfo@@SAHXZ
?IsWriteLocked@CCritSec@@QBE_NXZ
?IsWriteLocked@CFakeLock@@QBE_NXZ
?IsWriteLocked@CLKRHashTable@@QBE_NXZ
?IsWriteLocked@CLKRLinearHashTable@@QBE_NXZ
?IsWriteLocked@CReaderWriterLock2@@QBE_NXZ
?IsWriteLocked@CReaderWriterLock3@@QBE_NXZ
?IsWriteLocked@CReaderWriterLock3AR@@QBE_NXZ
?IsWriteLocked@CReaderWriterLock@@QBE_NXZ
?IsWriteLocked@CSmallSpinLock@@QBE_NXZ
?IsWriteLocked@CSpinLock@@QBE_NXZ
?IsWriteUnlocked@CCritSec@@QBE_NXZ
?IsWriteUnlocked@CFakeLock@@QBE_NXZ
?IsWriteUnlocked@CLKRHashTable@@QBE_NXZ
?IsWriteUnlocked@CLKRLinearHashTable@@QBE_NXZ
?IsWriteUnlocked@CReaderWriterLock2@@QBE_NXZ
?IsWriteUnlocked@CReaderWriterLock3@@QBE_NXZ
?IsWriteUnlocked@CReaderWriterLock3AR@@QBE_NXZ
?IsWriteUnlocked@CReaderWriterLock@@QBE_NXZ
?IsWriteUnlocked@CSmallSpinLock@@QBE_NXZ
?IsWriteUnlocked@CSpinLock@@QBE_NXZ
?Key@CLKRHashTable_Iterator@@QBE?BKXZ
?Key@CLKRLinearHashTable_Iterator@@QBE?BKXZ
?Last@CDoubleList@@QBEQAVCListEntry@@XZ
?Last@CLockedDoubleList@@QAEQAVCListEntry@@XZ
?Lock@CLockedDoubleList@@QAEXXZ
?Lock@CLockedSingleList@@QAEXXZ
?LockType@?$CLockBase@$00$00$02$00$02$01@@SG?AW4LOCK_LOCKTYPE@@XZ
?LockType@?$CLockBase@$01$00$00$00$02$01@@SG?AW4LOCK_LOCKTYPE@@XZ
?LockType@?$CLockBase@$02$00$00$00$00$00@@SG?AW4LOCK_LOCKTYPE@@XZ
?LockType@?$CLockBase@$03$00$00$01$02$02@@SG?AW4LOCK_LOCKTYPE@@XZ
?LockType@?$CLockBase@$04$01$01$00$02$01@@SG?AW4LOCK_LOCKTYPE@@XZ
?LockType@?$CLockBase@$05$01$01$00$02$01@@SG?AW4LOCK_LOCKTYPE@@XZ
?LockType@?$CLockBase@$06$01$00$00$02$01@@SG?AW4LOCK_LOCKTYPE@@XZ
?LockType@?$CLockBase@$07$01$00$00$02$01@@SG?AW4LOCK_LOCKTYPE@@XZ
?MaxSize@CLKRHashTable@@QBEKXZ
?MaxSize@CLKRLinearHashTable@@QBEKXZ
?MpHeapCompact@@YAKPAX@Z
?MultiKeys@CLKRHashTable@@QBE_NXZ
?MultiKeys@CLKRLinearHashTable@@QBE_NXZ
?MutexType@?$CLockBase@$00$00$02$00$02$01@@SG?AW4LOCK_RW_MUTEX@@XZ
?MutexType@?$CLockBase@$01$00$00$00$02$01@@SG?AW4LOCK_RW_MUTEX@@XZ
?MutexType@?$CLockBase@$02$00$00$00$00$00@@SG?AW4LOCK_RW_MUTEX@@XZ
?MutexType@?$CLockBase@$03$00$00$01$02$02@@SG?AW4LOCK_RW_MUTEX@@XZ
?MutexType@?$CLockBase@$04$01$01$00$02$01@@SG?AW4LOCK_RW_MUTEX@@XZ
?MutexType@?$CLockBase@$05$01$01$00$02$01@@SG?AW4LOCK_RW_MUTEX@@XZ
?MutexType@?$CLockBase@$06$01$00$00$02$01@@SG?AW4LOCK_RW_MUTEX@@XZ
?MutexType@?$CLockBase@$07$01$00$00$02$01@@SG?AW4LOCK_RW_MUTEX@@XZ
?NumSubTables@CLKRHashTable@@QBEHXZ
?NumSubTables@CLKRHashTable@@SG?AW4LK_TABLESIZE@@AAK0_N@Z
?NumSubTables@CLKRLinearHashTable@@QBEHXZ
?NumSubTables@CLKRLinearHashTable@@SG?AW4LK_TABLESIZE@@AAK0_N@Z
?PerLockSpin@?$CLockBase@$00$00$02$00$02$01@@SG?AW4LOCK_PERLOCK_SPIN@@XZ
?PerLockSpin@?$CLockBase@$01$00$00$00$02$01@@SG?AW4LOCK_PERLOCK_SPIN@@XZ
?PerLockSpin@?$CLockBase@$02$00$00$00$00$00@@SG?AW4LOCK_PERLOCK_SPIN@@XZ
?PerLockSpin@?$CLockBase@$03$00$00$01$02$02@@SG?AW4LOCK_PERLOCK_SPIN@@XZ
?PerLockSpin@?$CLockBase@$04$01$01$00$02$01@@SG?AW4LOCK_PERLOCK_SPIN@@XZ
?PerLockSpin@?$CLockBase@$05$01$01$00$02$01@@SG?AW4LOCK_PERLOCK_SPIN@@XZ
?PerLockSpin@?$CLockBase@$06$01$00$00$02$01@@SG?AW4LOCK_PERLOCK_SPIN@@XZ
?PerLockSpin@?$CLockBase@$07$01$00$00$02$01@@SG?AW4LOCK_PERLOCK_SPIN@@XZ
?Pop@CLockedSingleList@@QAEQAVCSingleListEntry@@XZ
?Pop@CSingleList@@QAEQAVCSingleListEntry@@XZ
?Push@CLockedSingleList@@QAEXQAVCSingleListEntry@@@Z
?Push@CSingleList@@QAEXQAVCSingleListEntry@@@Z
?QueueType@?$CLockBase@$00$00$02$00$02$01@@SG?AW4LOCK_QUEUE_TYPE@@XZ
?QueueType@?$CLockBase@$01$00$00$00$02$01@@SG?AW4LOCK_QUEUE_TYPE@@XZ
?QueueType@?$CLockBase@$02$00$00$00$00$00@@SG?AW4LOCK_QUEUE_TYPE@@XZ
?QueueType@?$CLockBase@$03$00$00$01$02$02@@SG?AW4LOCK_QUEUE_TYPE@@XZ
?QueueType@?$CLockBase@$04$01$01$00$02$01@@SG?AW4LOCK_QUEUE_TYPE@@XZ
?QueueType@?$CLockBase@$05$01$01$00$02$01@@SG?AW4LOCK_QUEUE_TYPE@@XZ
?QueueType@?$CLockBase@$06$01$00$00$02$01@@SG?AW4LOCK_QUEUE_TYPE@@XZ
?QueueType@?$CLockBase@$07$01$00$00$02$01@@SG?AW4LOCK_QUEUE_TYPE@@XZ
?ReadLock@CCritSec@@QAEXXZ
?ReadLock@CFakeLock@@QAEXXZ
?ReadLock@CLKRHashTable@@QBEXXZ
?ReadLock@CLKRLinearHashTable@@QBEXXZ
?ReadLock@CReaderWriterLock2@@QAEXXZ
?ReadLock@CReaderWriterLock3@@QAEXXZ
?ReadLock@CReaderWriterLock3AR@@QAEXXZ
?ReadLock@CReaderWriterLock@@QAEXXZ
?ReadLock@CSmallSpinLock@@QAEXXZ
?ReadLock@CSpinLock@@QAEXXZ
?ReadOrWriteLock@CCritSec@@QAE_NXZ
?ReadOrWriteLock@CFakeLock@@QAE_NXZ
?ReadOrWriteLock@CReaderWriterLock3@@QAE_NXZ
?ReadOrWriteLock@CReaderWriterLock3AR@@QAE_NXZ
?ReadOrWriteLock@CSpinLock@@QAE_NXZ
?ReadOrWriteUnlock@CCritSec@@QAEX_N@Z
?ReadOrWriteUnlock@CFakeLock@@QAEX_N@Z
?ReadOrWriteUnlock@CReaderWriterLock3@@QAEX_N@Z
?ReadOrWriteUnlock@CReaderWriterLock3AR@@QAEX_N@Z
?ReadOrWriteUnlock@CSpinLock@@QAEX_N@Z
?ReadUnlock@CCritSec@@QAEXXZ
?ReadUnlock@CFakeLock@@QAEXXZ
?ReadUnlock@CLKRHashTable@@QBEXXZ
?ReadUnlock@CLKRLinearHashTable@@QBEXXZ
?ReadUnlock@CReaderWriterLock2@@QAEXXZ
?ReadUnlock@CReaderWriterLock3@@QAEXXZ
?ReadUnlock@CReaderWriterLock3AR@@QAEXXZ
?ReadUnlock@CReaderWriterLock@@QAEXXZ
?ReadUnlock@CSmallSpinLock@@QAEXXZ
?ReadUnlock@CSpinLock@@QAEXXZ
?Record@CLKRHashTable_Iterator@@QBEPBXXZ
?Record@CLKRLinearHashTable_Iterator@@QBEPBXXZ
?Recursion@?$CLockBase@$00$00$02$00$02$01@@SG?AW4LOCK_RECURSION@@XZ
?Recursion@?$CLockBase@$01$00$00$00$02$01@@SG?AW4LOCK_RECURSION@@XZ
?Recursion@?$CLockBase@$02$00$00$00$00$00@@SG?AW4LOCK_RECURSION@@XZ
?Recursion@?$CLockBase@$03$00$00$01$02$02@@SG?AW4LOCK_RECURSION@@XZ
?Recursion@?$CLockBase@$04$01$01$00$02$01@@SG?AW4LOCK_RECURSION@@XZ
?Recursion@?$CLockBase@$05$01$01$00$02$01@@SG?AW4LOCK_RECURSION@@XZ
?Recursion@?$CLockBase@$06$01$00$00$02$01@@SG?AW4LOCK_RECURSION@@XZ
?Recursion@?$CLockBase@$07$01$00$00$02$01@@SG?AW4LOCK_RECURSION@@XZ
?ReleaseVersionInfo@CMdVersionInfo@@SAXXZ
?RemoveEntry@CDoubleList@@SGXQAVCListEntry@@@Z
?RemoveEntry@CLockedDoubleList@@QAEXQAVCListEntry@@@Z
?RemoveHead@CDoubleList@@QAEQAVCListEntry@@XZ
?RemoveHead@CLockedDoubleList@@QAEQAVCListEntry@@XZ
?RemoveTail@CDoubleList@@QAEQAVCListEntry@@XZ
?RemoveTail@CLockedDoubleList@@QAEQAVCListEntry@@XZ
?RestoreFile@CEXAutoBackupFile@@QAEJXZ
?SetBucketLockSpinCount@CLKRHashTable@@QAEXG@Z
?SetBucketLockSpinCount@CLKRLinearHashTable@@QAEXG@Z
?SetDefaultSpinAdjustmentFactor@CCritSec@@SGXN@Z
?SetDefaultSpinAdjustmentFactor@CFakeLock@@SGXN@Z
?SetDefaultSpinAdjustmentFactor@CReaderWriterLock2@@SGXN@Z
?SetDefaultSpinAdjustmentFactor@CReaderWriterLock3@@SGXN@Z
?SetDefaultSpinAdjustmentFactor@CReaderWriterLock3AR@@SGXN@Z
?SetDefaultSpinAdjustmentFactor@CReaderWriterLock@@SGXN@Z
?SetDefaultSpinAdjustmentFactor@CSmallSpinLock@@SGXN@Z
?SetDefaultSpinAdjustmentFactor@CSpinLock@@SGXN@Z
?SetDefaultSpinCount@CCritSec@@SGXG@Z
?SetDefaultSpinCount@CFakeLock@@SGXG@Z
?SetDefaultSpinCount@CReaderWriterLock2@@SGXG@Z
?SetDefaultSpinCount@CReaderWriterLock3@@SGXG@Z
?SetDefaultSpinCount@CReaderWriterLock3AR@@SGXG@Z
?SetDefaultSpinCount@CReaderWriterLock@@SGXG@Z
?SetDefaultSpinCount@CSmallSpinLock@@SGXG@Z
?SetDefaultSpinCount@CSpinLock@@SGXG@Z
?SetSpinCount@CCritSec@@QAE_NG@Z
?SetSpinCount@CCritSec@@SGKPAPAVCCriticalSection@@K@Z
?SetSpinCount@CFakeLock@@QAE_NG@Z
?SetSpinCount@CReaderWriterLock2@@QAE_NG@Z
?SetSpinCount@CReaderWriterLock3@@QAE_NG@Z
?SetSpinCount@CReaderWriterLock3AR@@QAE_NG@Z
?SetSpinCount@CReaderWriterLock@@QAE_NG@Z
?SetSpinCount@CSmallSpinLock@@QAE_NG@Z
?SetSpinCount@CSpinLock@@QAE_NG@Z
?SetTableLockSpinCount@CLKRHashTable@@QAEXG@Z
?SetTableLockSpinCount@CLKRLinearHashTable@@QAEXG@Z
?Size@CLKRHashTable@@QBEKXZ
?Size@CLKRLinearHashTable@@QBEKXZ
?Swap@CSingleList@@QAEXAAV1@@Z
?TryConvertSharedToExclusive@CReaderWriterLock3@@QAE_NXZ
?TryConvertSharedToExclusive@CReaderWriterLock3AR@@QAE_NXZ
?TryReadLock@CCritSec@@QAE_NXZ
?TryReadLock@CFakeLock@@QAE_NXZ
?TryReadLock@CReaderWriterLock2@@QAE_NXZ
?TryReadLock@CReaderWriterLock3@@QAE_NXZ
?TryReadLock@CReaderWriterLock3AR@@QAE_NXZ
?TryReadLock@CReaderWriterLock@@QAE_NXZ
?TryReadLock@CSmallSpinLock@@QAE_NXZ
?TryReadLock@CSpinLock@@QAE_NXZ
?TryReadOrWriteLock@CReaderWriterLock3@@QAE_NAA_N@Z
?TryReadOrWriteLock@CReaderWriterLock3AR@@QAE_NAA_N@Z
?TryWriteLock@CCritSec@@QAE_NXZ
?TryWriteLock@CFakeLock@@QAE_NXZ
?TryWriteLock@CReaderWriterLock2@@QAE_NXZ
?TryWriteLock@CReaderWriterLock3@@QAE_NXZ
?TryWriteLock@CReaderWriterLock3AR@@QAE_NXZ
?TryWriteLock@CReaderWriterLock@@QAE_NXZ
?TryWriteLock@CSmallSpinLock@@QAE_NXZ
?TryWriteLock@CSpinLock@@QAE_NXZ
?UndoBackup@CEXAutoBackupFile@@QAEJXZ
?Unlock@CLockedDoubleList@@QAEXXZ
?Unlock@CLockedSingleList@@QAEXXZ
?ValidSignature@CLKRHashTable@@QBE_NXZ
?ValidSignature@CLKRLinearHashTable@@QBE_NXZ
?WaitType@?$CLockBase@$00$00$02$00$02$01@@SG?AW4LOCK_WAIT_TYPE@@XZ
?WaitType@?$CLockBase@$01$00$00$00$02$01@@SG?AW4LOCK_WAIT_TYPE@@XZ
?WaitType@?$CLockBase@$02$00$00$00$00$00@@SG?AW4LOCK_WAIT_TYPE@@XZ
?WaitType@?$CLockBase@$03$00$00$01$02$02@@SG?AW4LOCK_WAIT_TYPE@@XZ
?WaitType@?$CLockBase@$04$01$01$00$02$01@@SG?AW4LOCK_WAIT_TYPE@@XZ
?WaitType@?$CLockBase@$05$01$01$00$02$01@@SG?AW4LOCK_WAIT_TYPE@@XZ
?WaitType@?$CLockBase@$06$01$00$00$02$01@@SG?AW4LOCK_WAIT_TYPE@@XZ
?WaitType@?$CLockBase@$07$01$00$00$02$01@@SG?AW4LOCK_WAIT_TYPE@@XZ
?WriteLock@CCritSec@@QAEXXZ
?WriteLock@CFakeLock@@QAEXXZ
?WriteLock@CLKRHashTable@@QAEXXZ
?WriteLock@CLKRLinearHashTable@@QAEXXZ
?WriteLock@CReaderWriterLock2@@QAEXXZ
?WriteLock@CReaderWriterLock3@@QAEXXZ
?WriteLock@CReaderWriterLock3AR@@QAEXXZ
?WriteLock@CReaderWriterLock@@QAEXXZ
?WriteLock@CSmallSpinLock@@QAEXXZ
?WriteLock@CSpinLock@@QAEXXZ
?WriteUnlock@CCritSec@@QAEXXZ
?WriteUnlock@CFakeLock@@QAEXXZ
?WriteUnlock@CLKRHashTable@@QBEXXZ
?WriteUnlock@CLKRLinearHashTable@@QBEXXZ
?WriteUnlock@CReaderWriterLock2@@QAEXXZ
?WriteUnlock@CReaderWriterLock3@@QAEXXZ
?WriteUnlock@CReaderWriterLock3AR@@QAEXXZ
?WriteUnlock@CReaderWriterLock@@QAEXXZ
?WriteUnlock@CSmallSpinLock@@QAEXXZ
?WriteUnlock@CSpinLock@@QAEXXZ
?_AddRef@CLKRLinearHashTable_Iterator@@IBEXH@Z
?_AddRefRecord@CLKRLinearHashTable@@ABEXPBXH@Z
?_AllocateNodeClump@CLKRLinearHashTable@@AAEQAVCNodeClump@@XZ
?_AllocateSegment@CLKRLinearHashTable@@ABEQAVCSegment@@XZ
?_AllocateSegmentDirectory@CLKRLinearHashTable@@AAEQAVCDirEntry@@I@Z
?_AllocateSubTable@CLKRHashTable@@AAEQAVCLKRLinearHashTable@@PBDP6G?BKPBX@ZP6GKK@ZP6G_NKK@ZP6GX1H@ZNKPAV1@_N7@Z
?_AllocateSubTableArray@CLKRHashTable@@AAEQAPAVCLKRLinearHashTable@@I@Z
?_Apply@CLKRLinearHashTable@@AAEKP6G?AW4LK_ACTION@@PBXPAX@Z1W4LK_LOCKTYPE@@AAW4LK_PREDICATE@@@Z
?_ApplyIf@CLKRLinearHashTable@@AAEKP6G?AW4LK_PREDICATE@@PBXPAX@ZP6G?AW4LK_ACTION@@01@Z1W4LK_LOCKTYPE@@AAW42@@Z
?_Bucket@CLKRLinearHashTable@@ABEQAVCBucket@@K@Z
?_BucketAddress@CLKRLinearHashTable@@ABEKK@Z
?_BucketLock@CLKRLinearHashTable@@ABEXQAVCBucket@@W4LK_LOCKTYPE@@@Z
?_BucketReadLock@CLKRLinearHashTable@@ABEXQAVCBucket@@@Z
?_BucketReadUnlock@CLKRLinearHashTable@@ABEXQAVCBucket@@@Z
?_BucketUnlock@CLKRLinearHashTable@@ABEXQAVCBucket@@W4LK_LOCKTYPE@@@Z
?_BucketWriteLock@CLKRLinearHashTable@@ABEXQAVCBucket@@@Z
?_BucketWriteUnlock@CLKRLinearHashTable@@ABEXQAVCBucket@@@Z
?_CalcKeyHash@CLKRHashTable@@ABEKK@Z
?_CalcKeyHash@CLKRLinearHashTable@@ABEKK@Z
?_Clear@CLKRLinearHashTable@@AAEX_N@Z
?_CmpExch@CReaderWriterLock2@@AAE_NJJ@Z
?_CmpExch@CReaderWriterLock3@@AAE_NJJ@Z
?_CmpExch@CReaderWriterLock3AR@@AAE_NJJ@Z
?_CmpExch@CReaderWriterLock@@AAE_NJJ@Z
?_Contract@CLKRLinearHashTable@@AAE?AW4LK_RETCODE@@XZ
?_CurrentThreadId@CReaderWriterLock3@@CGJXZ
?_CurrentThreadId@CReaderWriterLock3AR@@CGJXZ
?_CurrentThreadId@CSmallSpinLock@@CGJXZ
?_CurrentThreadId@CSpinLock@@CGJXZ
?_DeleteIf@CLKRLinearHashTable@@AAEKP6G?AW4LK_PREDICATE@@PBXPAX@Z1AAW42@@Z
?_DeleteKey@CLKRLinearHashTable@@AAE?AW4LK_RETCODE@@KK@Z
?_DeleteNode@CLKRLinearHashTable@@AAE_NQAVCBucket@@AAPAVCNodeClump@@1AAH@Z
?_DeleteRecord@CLKRLinearHashTable@@AAE?AW4LK_RETCODE@@PBXK@Z
?_EqualKeys@CLKRLinearHashTable@@ABE_NKK@Z
?_Erase@CLKRLinearHashTable@@AAE_NAAVCLKRLinearHashTable_Iterator@@K@Z
?_Expand@CLKRLinearHashTable@@AAE?AW4LK_RETCODE@@XZ
?_ExtractKey@CLKRHashTable@@ABE?BKPBX@Z
?_ExtractKey@CLKRLinearHashTable@@ABE?BKPBX@Z
?_FindBucket@CLKRLinearHashTable@@ABEQAVCBucket@@K_N@Z
?_FindKey@CLKRLinearHashTable@@ABE?AW4LK_RETCODE@@KKPAPBXPAVCLKRLinearHashTable_Iterator@@@Z
?_FindRecord@CLKRLinearHashTable@@ABE?AW4LK_RETCODE@@PBXK@Z
?_FreeNodeClump@CLKRLinearHashTable@@AAE_NPAVCNodeClump@@@Z
?_FreeSegment@CLKRLinearHashTable@@ABE_NPAVCSegment@@@Z
?_FreeSegmentDirectory@CLKRLinearHashTable@@AAE_NXZ
?_FreeSubTable@CLKRHashTable@@AAE_NPAVCLKRLinearHashTable@@@Z
?_FreeSubTableArray@CLKRHashTable@@AAE_NPAPAVCLKRLinearHashTable@@@Z
?_H0@CLKRLinearHashTable@@ABEKK@Z
?_H0@CLKRLinearHashTable@@CGKKK@Z
?_H1@CLKRLinearHashTable@@ABEKK@Z
?_H1@CLKRLinearHashTable@@CGKKK@Z
?_Increment@CLKRHashTable_Iterator@@IAE_N_N@Z
?_Increment@CLKRLinearHashTable_Iterator@@IAE_N_N@Z
?_Initialize@CLKRLinearHashTable@@AAE?AW4LK_RETCODE@@P6G?BKPBX@ZP6GKK@ZP6G_NKK@ZP6GX0H@ZPBDNK@Z
?_InsertRecord@CLKRLinearHashTable@@AAE?AW4LK_RETCODE@@PBXK_NPAPBXPAVCLKRLinearHashTable_Iterator@@@Z
?_InsertThisIntoGlobalList@CLKRHashTable@@AAEXXZ
?_InsertThisIntoGlobalList@CLKRLinearHashTable@@AAEXXZ
?_IsLocked@CSpinLock@@ABE_NXZ
?_IsNodeCompact@CLKRLinearHashTable@@ABEHQAVCBucket@@@Z
?_IsValidIterator@CLKRHashTable@@ABE_NABVCLKRHashTable_Iterator@@@Z
?_IsValidIterator@CLKRLinearHashTable@@ABE_NABVCLKRLinearHashTable_Iterator@@@Z
?_Lock@CSpinLock@@AAEXXZ
?_LockSpin@CReaderWriterLock2@@AAEX_N@Z
?_LockSpin@CReaderWriterLock3@@AAEXW4SPIN_TYPE@1@@Z
?_LockSpin@CReaderWriterLock3AR@@AAEXW4SPIN_TYPE@1@@Z
?_LockSpin@CReaderWriterLock@@AAEX_N@Z
?_LockSpin@CSmallSpinLock@@AAEXXZ
?_LockSpin@CSpinLock@@AAEXXZ
?_MergeRecordSets@CLKRLinearHashTable@@AAE?AW4LK_RETCODE@@PAVCBucket@@PAVCNodeClump@@1@Z
?_PredTrue@CLKRLinearHashTable@@CG?AW4LK_PREDICATE@@PBXPAX@Z
?_ReadLockSpin@CReaderWriterLock2@@AAEXXZ
?_ReadLockSpin@CReaderWriterLock3@@AAEXW4SPIN_TYPE@1@@Z
?_ReadLockSpin@CReaderWriterLock3AR@@AAEXW4SPIN_TYPE@1@@Z
?_ReadLockSpin@CReaderWriterLock@@AAEXXZ
?_ReadOrWriteLock@CLKRLinearHashTable@@ABE_NXZ
?_ReadOrWriteUnlock@CLKRLinearHashTable@@ABEX_N@Z
?_RemoveThisFromGlobalList@CLKRHashTable@@AAEXXZ
?_RemoveThisFromGlobalList@CLKRLinearHashTable@@AAEXXZ
?_SegIndex@CLKRLinearHashTable@@ABEKK@Z
?_Segment@CLKRLinearHashTable@@ABEAAPAVCSegment@@K@Z
?_SetSegVars@CLKRLinearHashTable@@AAE?AW4LK_RETCODE@@W4LK_TABLESIZE@@K@Z
?_SplitRecordSet@CLKRLinearHashTable@@AAE?AW4LK_RETCODE@@PAVCNodeClump@@0KKK0@Z
?_SubTable@CLKRHashTable@@ABEPAVCLKRLinearHashTable@@K@Z
?_SubTableIndex@CLKRHashTable@@ABEHPAVCLKRLinearHashTable@@@Z
?_TableLock@CLKRLinearHashTable@@AAEXW4LK_LOCKTYPE@@@Z
?_TableUnlock@CLKRLinearHashTable@@AAEXW4LK_LOCKTYPE@@@Z
?_TryLock@CSmallSpinLock@@AAE_NXZ
?_TryLock@CSpinLock@@AAE_NXZ
?_TryReadLock@CReaderWriterLock2@@AAE_NXZ
?_TryReadLock@CReaderWriterLock3@@AAE_NXZ
?_TryReadLock@CReaderWriterLock3AR@@AAE_NXZ
?_TryReadLock@CReaderWriterLock@@AAE_NXZ
?_TryReadLockRecursive@CReaderWriterLock3@@AAE_NXZ
?_TryReadLockRecursive@CReaderWriterLock3AR@@AAE_NXZ
?_TryWriteLock2@CReaderWriterLock3@@AAE_NXZ
?_TryWriteLock2@CReaderWriterLock3AR@@AAE_NXZ
?_TryWriteLock@CReaderWriterLock2@@AAE_NJ@Z
?_TryWriteLock@CReaderWriterLock3@@AAE_NJ@Z
?_TryWriteLock@CReaderWriterLock3AR@@AAE_NJ@Z
?_TryWriteLock@CReaderWriterLock@@AAE_NXZ
?_Unlock@CSpinLock@@AAEXXZ
?_WriteLockSpin@CReaderWriterLock2@@AAEXXZ
?_WriteLockSpin@CReaderWriterLock3@@AAEXXZ
?_WriteLockSpin@CReaderWriterLock3AR@@AAEXXZ
?_WriteLockSpin@CReaderWriterLock@@AAEXXZ
?_getFileSecurity@CExFileOperation@@AAEJPBG@Z
?_setFileSecurity@CExFileOperation@@AAEJPBG@Z
?fHaveBackup@CEXAutoBackupFile@@QAEHXZ
?s_aBucketSizes@?1??BucketSizes@CLKRHashTableStats@@SGPBJXZ@4QBJB
?sm_DefaultAllocator@CLKRHashTable@@0VCLKRhashDefaultAllocator@@A
?sm_dblDfltSpinAdjFctr@CCritSec@@1NA
?sm_dblDfltSpinAdjFctr@CFakeLock@@1NA
?sm_dblDfltSpinAdjFctr@CReaderWriterLock2@@1NA
?sm_dblDfltSpinAdjFctr@CReaderWriterLock3@@1NA
?sm_dblDfltSpinAdjFctr@CReaderWriterLock3AR@@1NA
?sm_dblDfltSpinAdjFctr@CReaderWriterLock@@1NA
?sm_dblDfltSpinAdjFctr@CSmallSpinLock@@1NA
?sm_dblDfltSpinAdjFctr@CSpinLock@@1NA
?sm_llGlobalList@CLKRHashTable@@0VCLockedDoubleList@@A
?sm_llGlobalList@CLKRLinearHashTable@@0VCLockedDoubleList@@A
?sm_lpOSVERSIONINFO@CMdVersionInfo@@0PAU_OSVERSIONINFOW@@A
?sm_pfnSetCriticalSectionSpinCount@CCriticalSection@@0P6GKPAU_RTL_CRITICAL_SECTION@@K@ZA
?sm_pfnTryEnterCriticalSection@CCriticalSection@@0P6GHPAU_RTL_CRITICAL_SECTION@@@ZA
?sm_wDefaultSpinCount@CCritSec@@1GA
?sm_wDefaultSpinCount@CFakeLock@@1GA
?sm_wDefaultSpinCount@CReaderWriterLock2@@1GA
?sm_wDefaultSpinCount@CReaderWriterLock3@@1GA
?sm_wDefaultSpinCount@CReaderWriterLock3AR@@1GA
?sm_wDefaultSpinCount@CReaderWriterLock@@1GA
?sm_wDefaultSpinCount@CSmallSpinLock@@1GA
?sm_wDefaultSpinCount@CSpinLock@@1GA
DllBidEntryPoint
FXMemAttach
FXMemDetach
GetIUMS
IrtlTrace
MPCSInitialize
MPCSUninitialize
MPDeleteCriticalSection
MPInitializeCriticalSection
MPInitializeCriticalSectionAndSpinCount
MpGetHeapHandle
MpHeapAlloc
MpHeapCreate
MpHeapDestroy
MpHeapFree
MpHeapReAlloc
MpHeapSize
MpHeapValidate
SetIUMS
SetMemHook
UMSEnterCSWraper
_DllMain@12
_GetAllocCounters@0
_IrtlAssert@16
mpCalloc
mpFree
mpMalloc
mpRealloc
