LIBRARY BcastDVRCommon.dll

EXPORTS
??0BcastDVR_OutputDebug@@QAE@PBD@Z
??0ImpersonateHelper@Internal@Capture@Media@Windows@@QAE@XZ
??1ImpersonateHelper@Internal@Capture@Media@Windows@@QAE@XZ
?AppendPath@EnvironmentManager@Internal@Capture@Media@Windows@@YGJABVString@25@0PAV625@@Z
?CalcPreviewVideoBufferDataSize@GameDVRUtility@Internal@Capture@Media@Windows@@YGJKKPAK@Z
?CalcPreviewVideoFrameDataSize@GameDVRUtility@Internal@Capture@Media@Windows@@YGJKKPAK@Z
?CleanupObsoletePlugIns@PlugInUtility@Internal@Capture@Media@Windows@@YGJPAUHKEY__@@@Z
?CloseDuplicatedHandle@GameDVRUtility@Internal@Capture@Media@Windows@@YGJKPAX@Z
?CloseDuplicatedHandles@GameDVRUtility@Internal@Capture@Media@Windows@@YGJKKQAPAX@Z
?FreeBroadcastSebEventIds@PlugInUtility@Internal@Capture@Media@Windows@@YGXPAPAU_GUID@@@Z
?GetBroadcastPlugInRegistryPathFromSebEventId@EnvironmentManager@Internal@Capture@Media@Windows@@YGJABU_GUID@@PAVString@25@@Z
?GetBroadcastPlugInRegistryPathFromSebEventIdString@EnvironmentManager@Internal@Capture@Media@Windows@@YGJPBGPAVString@25@@Z
?GetBroadcastSebEventIds@PlugInUtility@Internal@Capture@Media@Windows@@YGJPAKPAPAU_GUID@@@Z
?GetCallersPlugInInfo@PlugInUtility@Internal@Capture@Media@Windows@@YGJPAUHKEY__@@ABU_GUID@@PAVString@25@2@Z
?GetCallersSebEventId@PlugInUtility@Internal@Capture@Media@Windows@@YGJPAU_GUID@@@Z
?GetDefaultPlugIn@PlugInUtility@Internal@Capture@Media@Windows@@YGJPAUHKEY__@@PAU_GUID@@@Z
?GetErrorHistoryCount@BcastDVRLogProviderBase@@SGKXZ
?GetFormattedErrorHistory@BcastDVRLogProviderBase@@SGKPAVString@Internal@Windows@@@Z
?GetGuidFromGuidString@GameDVRUtility@Internal@Capture@Media@Windows@@YGJPBGPAU_GUID@@@Z
?GetGuidStringFromGuid@GameDVRUtility@Internal@Capture@Media@Windows@@YGJABU_GUID@@_NPAVString@25@@Z
?GetHKeyCurrentUserForDefaultUser@GameDVRUtility@Internal@Capture@Media@Windows@@YGJPAPAUHKEY__@@@Z
?GetHKeyCurrentUserForIUser@GameDVRUtility@Internal@Capture@Media@Windows@@YGJPAUIUser@System@5@PAPAUHKEY__@@@Z
?GetIUserSID@GameDVRUtility@Internal@Capture@Media@Windows@@YGJPAUIUser@System@5@PAVString@25@@Z
?GetJsonArray@GameDVRUtility@Internal@Capture@Media@Windows@@YGJPAU?$IMap@PAUHSTRING__@@PAUIJsonValue@Json@Data@Windows@@@Collections@Foundation@5@PAUHSTRING__@@PAEPAPAU?$IVector@PAUIJsonValue@Json@Data@Windows@@@785@@Z
?GetJsonBoolean@GameDVRUtility@Internal@Capture@Media@Windows@@YGJPAU?$IMap@PAUHSTRING__@@PAUIJsonValue@Json@Data@Windows@@@Collections@Foundation@5@PAUHSTRING__@@PAE2@Z
?GetJsonDateTime@GameDVRUtility@Internal@Capture@Media@Windows@@YGJPAU?$IMap@PAUHSTRING__@@PAUIJsonValue@Json@Data@Windows@@@Collections@Foundation@5@PAUHSTRING__@@PAEPAUDateTime@85@@Z
?GetJsonDouble@GameDVRUtility@Internal@Capture@Media@Windows@@YGJPAU?$IMap@PAUHSTRING__@@PAUIJsonValue@Json@Data@Windows@@@Collections@Foundation@5@PAUHSTRING__@@PAEPAN@Z
?GetJsonGuid@GameDVRUtility@Internal@Capture@Media@Windows@@YGJPAU?$IMap@PAUHSTRING__@@PAUIJsonValue@Json@Data@Windows@@@Collections@Foundation@5@PAUHSTRING__@@PAEPAU_GUID@@@Z
?GetJsonNumber@GameDVRUtility@Internal@Capture@Media@Windows@@YGJPAU?$IMap@PAUHSTRING__@@PAUIJsonValue@Json@Data@Windows@@@Collections@Foundation@5@PAUHSTRING__@@PAEPA_J@Z
?GetJsonString@GameDVRUtility@Internal@Capture@Media@Windows@@YGJPAU?$IMap@PAUHSTRING__@@PAUIJsonValue@Json@Data@Windows@@@Collections@Foundation@5@PAUHSTRING__@@PAEPAVString@25@@Z
?GetKnownFolderSubFolder@EnvironmentManager@Internal@Capture@Media@Windows@@YGJABU_GUID@@PBGPAVString@25@@Z
?GetOSVersionString@GameDVRUtility@Internal@Capture@Media@Windows@@YGXPAVString@25@@Z
?GetPlugInInfo@PlugInUtility@Internal@Capture@Media@Windows@@YGJPAUHKEY__@@ABU_GUID@@PAVString@25@22@Z
?GetPlugInPackageFullName@PlugInUtility@Internal@Capture@Media@Windows@@YGJABU_GUID@@PAVString@25@@Z
?GetUserGameDVRConfigFolderPath@EnvironmentManager@Internal@Capture@Media@Windows@@YGJPAVString@25@PBG@Z
?ImpersonateDefaultUser@ImpersonateHelper@Internal@Capture@Media@Windows@@QAEJXZ
?ImpersonateUser@ImpersonateHelper@Internal@Capture@Media@Windows@@QAEJPAUIUser@System@5@@Z
?Initialize@BcastDVR_OutputDebug@@SGXPBGW4BcastDVR_OutputDebug_TraceToFileType@@0@Z
?InsertJsonArray@GameDVRUtility@Internal@Capture@Media@Windows@@YGJPAU?$IMap@PAUHSTRING__@@PAUIJsonValue@Json@Data@Windows@@@Collections@Foundation@5@PAUHSTRING__@@PAPAU?$IVector@PAUIJsonValue@Json@Data@Windows@@@785@@Z
?InsertJsonBoolean@GameDVRUtility@Internal@Capture@Media@Windows@@YGJPAUIJsonValueStatics@Json@Data@5@PAU?$IMap@PAUHSTRING__@@PAUIJsonValue@Json@Data@Windows@@@Collections@Foundation@5@PAUHSTRING__@@E@Z
?InsertJsonDateTime@GameDVRUtility@Internal@Capture@Media@Windows@@YGJPAUIJsonValueStatics@Json@Data@5@PAU?$IMap@PAUHSTRING__@@PAUIJsonValue@Json@Data@Windows@@@Collections@Foundation@5@PAUHSTRING__@@UDateTime@Foundation@5@@Z
?InsertJsonDouble@GameDVRUtility@Internal@Capture@Media@Windows@@YGJPAUIJsonValueStatics@Json@Data@5@PAU?$IMap@PAUHSTRING__@@PAUIJsonValue@Json@Data@Windows@@@Collections@Foundation@5@PAUHSTRING__@@N@Z
?InsertJsonGuid@GameDVRUtility@Internal@Capture@Media@Windows@@YGJPAUIJsonValueStatics@Json@Data@5@PAU?$IMap@PAUHSTRING__@@PAUIJsonValue@Json@Data@Windows@@@Collections@Foundation@5@PAUHSTRING__@@U_GUID@@@Z
?InsertJsonNumber@GameDVRUtility@Internal@Capture@Media@Windows@@YGJPAUIJsonValueStatics@Json@Data@5@PAU?$IMap@PAUHSTRING__@@PAUIJsonValue@Json@Data@Windows@@@Collections@Foundation@5@PAUHSTRING__@@_J@Z
?InsertJsonObject@GameDVRUtility@Internal@Capture@Media@Windows@@YGJPAU?$IMap@PAUHSTRING__@@PAUIJsonValue@Json@Data@Windows@@@Collections@Foundation@5@PAUHSTRING__@@PAPAUIJsonObject@Json@Data@5@@Z
?InsertJsonString@GameDVRUtility@Internal@Capture@Media@Windows@@YGJPAUIJsonValueStatics@Json@Data@5@PAU?$IMap@PAUHSTRING__@@PAUIJsonValue@Json@Data@Windows@@@Collections@Foundation@5@PAUHSTRING__@@2@Z
?InsertNamedJsonEnumBitfields@GameDVRUtility@Internal@Capture@Media@Windows@@YGJPAUIJsonValueStatics@Json@Data@5@PAU?$IMap@PAUHSTRING__@@PAUIJsonValue@Json@Data@Windows@@@Collections@Foundation@5@PAUHSTRING__@@_KPBQBGH@Z
?LogError@BcastDVRLogProviderBase@@SGXJPBD0H_N@Z
?LogErrorEx@BcastDVRLogProviderBase@@SGXJPBD0H00_N@Z
?MapConstantToString@GameDVRUtility@Internal@Capture@Media@Windows@@YGPBGQAPBGKKKK@Z
?MostRecentErrorInHistory@BcastDVRLogProviderBase@@SGJXZ
?OutputString@BcastDVR_OutputDebug@@QAEXXZ
?PrintGuid@GameDVRUtility@Internal@Capture@Media@Windows@@YGJU_GUID@@PAVString@25@@Z
?PrintHRESULT@BcastDVR_OutputDebug@@QAEXJ@Z
?PrintType@BcastDVR_OutputDebug@@QAEXPBD0@Z
?PrintType@BcastDVR_OutputDebug@@QAEXPBDE@Z
?PrintType@BcastDVR_OutputDebug@@QAEXPBDH@Z
?PrintType@BcastDVR_OutputDebug@@QAEXPBDI@Z
?PrintType@BcastDVR_OutputDebug@@QAEXPBDK@Z
?PrintType@BcastDVR_OutputDebug@@QAEXPBDN@Z
?PrintType@BcastDVR_OutputDebug@@QAEXPBDPAX@Z
?PrintType@BcastDVR_OutputDebug@@QAEXPBDPBG@Z
?PrintType@BcastDVR_OutputDebug@@QAEXPBD_K@Z
?Printf@BcastDVRLogProviderBase@@SAX_N0PBD1HPBGZZ
?RecreateStorageFile@GameDVRUtility@Internal@Capture@Media@Windows@@YGJPAUIStorageFile@Storage@5@PAPAU675@@Z
?RegGetDwordValue@GameDVRUtility@Internal@Capture@Media@Windows@@YGXPAUHKEY__@@PBG1KPAK@Z
?RegGetQwordValue@GameDVRUtility@Internal@Capture@Media@Windows@@YGXPAUHKEY__@@PBG1_KPA_K@Z
?RegGetStringValue@GameDVRUtility@Internal@Capture@Media@Windows@@YGXPAUHKEY__@@PBG1PAVString@25@@Z
?RegSetBinaryValue@GameDVRUtility@Internal@Capture@Media@Windows@@YGJPAUHKEY__@@PBG1PBEK@Z
?RegSetDwordValue@GameDVRUtility@Internal@Capture@Media@Windows@@YGJPAUHKEY__@@PBG1K@Z
?RegSetQwordValue@GameDVRUtility@Internal@Capture@Media@Windows@@YGJPAUHKEY__@@PBG1_K@Z
?RegSetStringValue@GameDVRUtility@Internal@Capture@Media@Windows@@YGJPAUHKEY__@@PBG1PAVString@25@@Z
?RegSetStringValue@GameDVRUtility@Internal@Capture@Media@Windows@@YGJPAUHKEY__@@PBGPBD2@Z
?RegisterCallingPlugIn@PlugInUtility@Internal@Capture@Media@Windows@@YGJPAUHKEY__@@PAUHSTRING__@@1ABU_GUID@@@Z
?SetDefaultPlugIn@PlugInUtility@Internal@Capture@Media@Windows@@YGJPAUHKEY__@@ABU_GUID@@@Z
?Uninitialize@BcastDVR_OutputDebug@@SGXXZ
ActiveMetadataManagerInstances
CreateCallerManagerInstance
CreateCallerManagerInstanceForAppId
CreateMetadataManagerInstance
CreateMetadataManagerInstanceForAppId
CreateMetadataManagerInstanceFromJson
FireCallerManagerEvent
FireCallerManagerEventForAppId
GetBroadcastSharedMemoryReader
GetBroadcastSharedMemoryWriter
GetPreviewSharedMemoryReader
GetPreviewSharedMemoryWriter
