LIBRARY provthrd.dll

EXPORTS
??$CompareElements@PAGPAG@@YGHPBQAG0@Z
??$HashKey@PAG@@YGIPAG@Z
??0CBString@@QAE@H@Z
??0CBString@@QAE@PBG@Z
??0CBString@@QAE@XZ
??0Conjunctions@@QAE@K@Z
??0Disjunctions@@QAE@KK@Z
??0PartitionSet@@QAE@ABV0@@Z
??0PartitionSet@@QAE@XZ
??0ProvAnalyser@@QAE@ABV0@@Z
??0ProvAnalyser@@QAE@PBG@Z
??0ProvBitStringType@@QAE@ABV0@@Z
??0ProvBitStringType@@QAE@PBG@Z
??0ProvBitStringType@@QAE@PBGABVProvOctetString@@@Z
??0ProvBitStringType@@QAE@PBGPAPBGABK@Z
??0ProvCounter64@@QAE@ABV0@@Z
??0ProvCounter64@@QAE@KK@Z
??0ProvCounter64Type@@QAE@ABV0@@Z
??0ProvCounter64Type@@QAE@ABVProvCounter64@@@Z
??0ProvCounter64Type@@QAE@KK@Z
??0ProvCounter64Type@@QAE@PBG@Z
??0ProvCounter64Type@@QAE@XZ
??0ProvCounter@@QAE@ABV0@@Z
??0ProvCounter@@QAE@K@Z
??0ProvCounterType@@QAE@ABV0@@Z
??0ProvCounterType@@QAE@ABVProvCounter@@@Z
??0ProvCounterType@@QAE@K@Z
??0ProvCounterType@@QAE@PBG@Z
??0ProvCounterType@@QAE@XZ
??0ProvDateTimeType@@QAE@ABV0@@Z
??0ProvDateTimeType@@QAE@ABVProvOctetString@@@Z
??0ProvDateTimeType@@QAE@PBG@Z
??0ProvDateTimeType@@QAE@XZ
??0ProvDebugLog@@QAE@D@Z
??0ProvDisplayStringType@@QAE@ABV0@@Z
??0ProvDisplayStringType@@QAE@ABVProvOctetString@@PBG@Z
??0ProvDisplayStringType@@QAE@PBG0@Z
??0ProvDisplayStringType@@QAE@PBG@Z
??0ProvEnumeratedType@@QAE@ABV0@@Z
??0ProvEnumeratedType@@QAE@PBG0@Z
??0ProvEnumeratedType@@QAE@PBG@Z
??0ProvEnumeratedType@@QAE@PBGABJ@Z
??0ProvEnumeratedType@@QAE@PBGABVProvInteger@@@Z
??0ProvEventObject@@QAE@ABV0@@Z
??0ProvEventObject@@QAE@PBG@Z
??0ProvFixedLengthDisplayStringType@@QAE@ABK@Z
??0ProvFixedLengthDisplayStringType@@QAE@ABKABVProvOctetString@@@Z
??0ProvFixedLengthDisplayStringType@@QAE@ABKPBG@Z
??0ProvFixedLengthDisplayStringType@@QAE@ABV0@@Z
??0ProvFixedLengthOctetStringType@@QAE@ABK@Z
??0ProvFixedLengthOctetStringType@@QAE@ABKABVProvOctetString@@@Z
??0ProvFixedLengthOctetStringType@@QAE@ABKPBE@Z
??0ProvFixedLengthOctetStringType@@QAE@ABKPBG@Z
??0ProvFixedLengthOctetStringType@@QAE@ABV0@@Z
??0ProvFixedLengthOpaqueType@@QAE@ABK@Z
??0ProvFixedLengthOpaqueType@@QAE@ABKABVProvOpaque@@@Z
??0ProvFixedLengthOpaqueType@@QAE@ABKPBEK@Z
??0ProvFixedLengthOpaqueType@@QAE@ABKPBG@Z
??0ProvFixedLengthOpaqueType@@QAE@ABV0@@Z
??0ProvFixedLengthPhysAddressType@@QAE@ABK@Z
??0ProvFixedLengthPhysAddressType@@QAE@ABKABVProvOctetString@@@Z
??0ProvFixedLengthPhysAddressType@@QAE@ABKPBG@Z
??0ProvFixedLengthPhysAddressType@@QAE@ABV0@@Z
??0ProvFixedType@@QAE@ABV0@@Z
??0ProvFixedType@@QAE@K@Z
??0ProvGauge@@QAE@ABV0@@Z
??0ProvGauge@@QAE@J@Z
??0ProvGaugeType@@QAE@ABV0@@Z
??0ProvGaugeType@@QAE@ABVProvGauge@@PBG@Z
??0ProvGaugeType@@QAE@KPBG@Z
??0ProvGaugeType@@QAE@PBG0@Z
??0ProvGaugeType@@QAE@PBG@Z
??0ProvInstanceType@@IAE@ABV0@@Z
??0ProvInstanceType@@IAE@HH@Z
??0ProvInteger@@QAE@ABV0@@Z
??0ProvInteger@@QAE@J@Z
??0ProvIntegerType@@QAE@ABV0@@Z
??0ProvIntegerType@@QAE@ABVProvInteger@@PBG@Z
??0ProvIntegerType@@QAE@JPBG@Z
??0ProvIntegerType@@QAE@PBG0@Z
??0ProvIntegerType@@QAE@PBG@Z
??0ProvIpAddress@@QAE@ABV0@@Z
??0ProvIpAddress@@QAE@K@Z
??0ProvIpAddress@@QAE@PBD@Z
??0ProvIpAddressType@@QAE@ABV0@@Z
??0ProvIpAddressType@@QAE@ABVProvIpAddress@@@Z
??0ProvIpAddressType@@QAE@K@Z
??0ProvIpAddressType@@QAE@PBG@Z
??0ProvIpAddressType@@QAE@XZ
??0ProvLexicon@@QAE@XZ
??0ProvMacAddressType@@QAE@ABV0@@Z
??0ProvMacAddressType@@QAE@ABVProvOctetString@@@Z
??0ProvMacAddressType@@QAE@PBE@Z
??0ProvMacAddressType@@QAE@PBG@Z
??0ProvMacAddressType@@QAE@XZ
??0ProvNegativeRangeType@@QAE@ABV0@@Z
??0ProvNegativeRangeType@@QAE@JJ@Z
??0ProvNegativeRangeType@@QAE@XZ
??0ProvNetworkAddressType@@QAE@ABV0@@Z
??0ProvNetworkAddressType@@QAE@ABVProvIpAddress@@@Z
??0ProvNetworkAddressType@@QAE@K@Z
??0ProvNetworkAddressType@@QAE@PBG@Z
??0ProvNetworkAddressType@@QAE@XZ
??0ProvNull@@QAE@XZ
??0ProvNullType@@QAE@ABV0@@Z
??0ProvNullType@@QAE@ABVProvNull@@@Z
??0ProvNullType@@QAE@XZ
??0ProvOSIAddressType@@QAE@ABV0@@Z
??0ProvOSIAddressType@@QAE@ABVProvOctetString@@@Z
??0ProvOSIAddressType@@QAE@PBEK@Z
??0ProvOSIAddressType@@QAE@PBG@Z
??0ProvOSIAddressType@@QAE@XZ
??0ProvObjectIdentifier@@QAE@ABV0@@Z
??0ProvObjectIdentifier@@QAE@PBD@Z
??0ProvObjectIdentifier@@QAE@PBKK@Z
??0ProvObjectIdentifierType@@QAE@ABV0@@Z
??0ProvObjectIdentifierType@@QAE@ABVProvObjectIdentifier@@@Z
??0ProvObjectIdentifierType@@QAE@PBG@Z
??0ProvObjectIdentifierType@@QAE@PBKK@Z
??0ProvObjectIdentifierType@@QAE@XZ
??0ProvOctetString@@QAE@ABV0@@Z
??0ProvOctetString@@QAE@PBEK@Z
??0ProvOctetStringType@@QAE@ABV0@@Z
??0ProvOctetStringType@@QAE@ABVProvOctetString@@PBG@Z
??0ProvOctetStringType@@QAE@PBEKPBG@Z
??0ProvOctetStringType@@QAE@PBG0@Z
??0ProvOctetStringType@@QAE@PBG@Z
??0ProvOpaque@@QAE@ABV0@@Z
??0ProvOpaque@@QAE@PBEK@Z
??0ProvOpaqueType@@QAE@ABV0@@Z
??0ProvOpaqueType@@QAE@ABVProvOpaque@@PBG@Z
??0ProvOpaqueType@@QAE@PBEKPBG@Z
??0ProvOpaqueType@@QAE@PBG0@Z
??0ProvOpaqueType@@QAE@PBG@Z
??0ProvPhysAddressType@@QAE@ABV0@@Z
??0ProvPhysAddressType@@QAE@ABVProvOctetString@@PBG@Z
??0ProvPhysAddressType@@QAE@PBEKPBG@Z
??0ProvPhysAddressType@@QAE@PBG0@Z
??0ProvPhysAddressType@@QAE@PBG@Z
??0ProvPositiveRangeType@@QAE@ABV0@@Z
??0ProvPositiveRangeType@@QAE@KJ@Z
??0ProvPositiveRangeType@@QAE@XZ
??0ProvPositiveRangedType@@QAE@ABV0@@Z
??0ProvPositiveRangedType@@QAE@PBG@Z
??0ProvRowStatusType@@QAE@ABJ@Z
??0ProvRowStatusType@@QAE@ABV0@@Z
??0ProvRowStatusType@@QAE@ABVProvInteger@@@Z
??0ProvRowStatusType@@QAE@ABW4ProvRowStatusEnum@0@@Z
??0ProvRowStatusType@@QAE@PBG@Z
??0ProvRowStatusType@@QAE@XZ
??0ProvTimeTicks@@QAE@ABV0@@Z
??0ProvTimeTicks@@QAE@K@Z
??0ProvTimeTicksType@@QAE@ABV0@@Z
??0ProvTimeTicksType@@QAE@ABVProvTimeTicks@@@Z
??0ProvTimeTicksType@@QAE@K@Z
??0ProvTimeTicksType@@QAE@PBG@Z
??0ProvTimeTicksType@@QAE@XZ
??0ProvUDPAddressType@@QAE@ABV0@@Z
??0ProvUDPAddressType@@QAE@ABVProvOctetString@@@Z
??0ProvUDPAddressType@@QAE@PBE@Z
??0ProvUDPAddressType@@QAE@PBG@Z
??0ProvUDPAddressType@@QAE@XZ
??0ProvUInteger32@@QAE@ABV0@@Z
??0ProvUInteger32@@QAE@J@Z
??0ProvValue@@AAE@ABV0@@Z
??0ProvValue@@IAE@XZ
??0QueryPreprocessor@@QAE@ABV0@@Z
??0QueryPreprocessor@@QAE@XZ
??0WmiAndNode@@QAE@ABV0@@Z
??0WmiAndNode@@QAE@PAVWmiTreeNode@@00@Z
??0WmiNotNode@@QAE@ABV0@@Z
??0WmiNotNode@@QAE@PAVWmiTreeNode@@0@Z
??0WmiNullNode@@QAE@$$QAV0@@Z
??0WmiNullNode@@QAE@ABV0@@Z
??0WmiNullNode@@QAE@PAGKPAVWmiTreeNode@@@Z
??0WmiNullRangeNode@@QAE@ABV0@@Z
??0WmiNullRangeNode@@QAE@PAGKPAVWmiTreeNode@@1@Z
??0WmiOperatorEqualNode@@QAE@ABV0@@Z
??0WmiOperatorEqualNode@@QAE@PAVWmiTreeNode@@0@Z
??0WmiOperatorEqualOrGreaterNode@@QAE@ABV0@@Z
??0WmiOperatorEqualOrGreaterNode@@QAE@PAVWmiTreeNode@@0@Z
??0WmiOperatorEqualOrLessNode@@QAE@ABV0@@Z
??0WmiOperatorEqualOrLessNode@@QAE@PAVWmiTreeNode@@0@Z
??0WmiOperatorGreaterNode@@QAE@ABV0@@Z
??0WmiOperatorGreaterNode@@QAE@PAVWmiTreeNode@@0@Z
??0WmiOperatorIsANode@@QAE@ABV0@@Z
??0WmiOperatorIsANode@@QAE@PAVWmiTreeNode@@0@Z
??0WmiOperatorLessNode@@QAE@ABV0@@Z
??0WmiOperatorLessNode@@QAE@PAVWmiTreeNode@@0@Z
??0WmiOperatorLikeNode@@QAE@ABV0@@Z
??0WmiOperatorLikeNode@@QAE@PAVWmiTreeNode@@0@Z
??0WmiOperatorNode@@QAE@ABV0@@Z
??0WmiOperatorNode@@QAE@KPAVWmiTreeNode@@0@Z
??0WmiOperatorNotEqualNode@@QAE@ABV0@@Z
??0WmiOperatorNotEqualNode@@QAE@PAVWmiTreeNode@@0@Z
??0WmiOperatorNotIsANode@@QAE@ABV0@@Z
??0WmiOperatorNotIsANode@@QAE@PAVWmiTreeNode@@0@Z
??0WmiOperatorNotLikeNode@@QAE@ABV0@@Z
??0WmiOperatorNotLikeNode@@QAE@PAVWmiTreeNode@@0@Z
??0WmiOrNode@@QAE@ABV0@@Z
??0WmiOrNode@@QAE@PAVWmiTreeNode@@00@Z
??0WmiRangeNode@@QAE@ABV0@@Z
??0WmiRangeNode@@QAE@KPAGKHHHHPAVWmiTreeNode@@1@Z
??0WmiSignedIntegerNode@@QAE@$$QAV0@@Z
??0WmiSignedIntegerNode@@QAE@ABV0@@Z
??0WmiSignedIntegerNode@@QAE@PAGJKPAVWmiTreeNode@@@Z
??0WmiSignedIntegerRangeNode@@QAE@$$QAV0@@Z
??0WmiSignedIntegerRangeNode@@QAE@ABV0@@Z
??0WmiSignedIntegerRangeNode@@QAE@PAGKHHHHJJPAVWmiTreeNode@@1@Z
??0WmiStringNode@@QAE@ABV0@@Z
??0WmiStringNode@@QAE@PAG0W4WmiValueFunction@WmiValueNode@@1KPAVWmiTreeNode@@@Z
??0WmiStringRangeNode@@QAE@ABV0@@Z
??0WmiStringRangeNode@@QAE@PAGKHHHH00PAVWmiTreeNode@@1@Z
??0WmiTreeNode@@QAE@ABV0@@Z
??0WmiTreeNode@@QAE@KPAXPAV0@11@Z
??0WmiTreeNode@@QAE@PAV0@@Z
??0WmiTreeNodeIterator@@QAE@ABV0@@Z
??0WmiTreeNodeIterator@@QAE@PAV0@@Z
??0WmiTreeNodeIterator@@QAE@PAVWmiTreeNode@@@Z
??0WmiUnsignedIntegerNode@@QAE@$$QAV0@@Z
??0WmiUnsignedIntegerNode@@QAE@ABV0@@Z
??0WmiUnsignedIntegerNode@@QAE@PAGKKPAVWmiTreeNode@@@Z
??0WmiUnsignedIntegerRangeNode@@QAE@$$QAV0@@Z
??0WmiUnsignedIntegerRangeNode@@QAE@ABV0@@Z
??0WmiUnsignedIntegerRangeNode@@QAE@PAGKHHHHKKPAVWmiTreeNode@@1@Z
??0WmiValueNode@@QAE@ABV0@@Z
??0WmiValueNode@@QAE@KPAGW4WmiValueFunction@0@1KPAVWmiTreeNode@@@Z
??1CBString@@QAE@XZ
??1Conjunctions@@QAE@XZ
??1Disjunctions@@QAE@XZ
??1PartitionSet@@UAE@XZ
??1ProvAnalyser@@UAE@XZ
??1ProvBitStringType@@UAE@XZ
??1ProvCounter64@@UAE@XZ
??1ProvCounter64Type@@UAE@XZ
??1ProvCounter@@UAE@XZ
??1ProvCounterType@@UAE@XZ
??1ProvDateTimeType@@UAE@XZ
??1ProvDisplayStringType@@UAE@XZ
??1ProvEnumeratedType@@UAE@XZ
??1ProvEventObject@@UAE@XZ
??1ProvFixedLengthDisplayStringType@@UAE@XZ
??1ProvFixedLengthOctetStringType@@UAE@XZ
??1ProvFixedLengthOpaqueType@@UAE@XZ
??1ProvFixedLengthPhysAddressType@@UAE@XZ
??1ProvFixedType@@UAE@XZ
??1ProvGauge@@UAE@XZ
??1ProvGaugeType@@UAE@XZ
??1ProvInstanceType@@UAE@XZ
??1ProvInteger@@UAE@XZ
??1ProvIntegerType@@UAE@XZ
??1ProvIpAddress@@UAE@XZ
??1ProvIpAddressType@@UAE@XZ
??1ProvLexicon@@QAE@XZ
??1ProvMacAddressType@@UAE@XZ
??1ProvNegativeRangeType@@UAE@XZ
??1ProvNetworkAddressType@@UAE@XZ
??1ProvNull@@UAE@XZ
??1ProvNullType@@UAE@XZ
??1ProvOSIAddressType@@UAE@XZ
??1ProvObjectIdentifier@@UAE@XZ
??1ProvObjectIdentifierType@@UAE@XZ
??1ProvOctetString@@UAE@XZ
??1ProvOctetStringType@@UAE@XZ
??1ProvOpaque@@UAE@XZ
??1ProvOpaqueType@@UAE@XZ
??1ProvPhysAddressType@@UAE@XZ
??1ProvPositiveRangeType@@UAE@XZ
??1ProvPositiveRangedType@@UAE@XZ
??1ProvRowStatusType@@UAE@XZ
??1ProvTimeTicks@@UAE@XZ
??1ProvTimeTicksType@@UAE@XZ
??1ProvUDPAddressType@@UAE@XZ
??1ProvUInteger32@@UAE@XZ
??1ProvValue@@UAE@XZ
??1QueryPreprocessor@@UAE@XZ
??1WmiAndNode@@UAE@XZ
??1WmiNotNode@@UAE@XZ
??1WmiNullNode@@UAE@XZ
??1WmiNullRangeNode@@UAE@XZ
??1WmiOperatorEqualNode@@UAE@XZ
??1WmiOperatorEqualOrGreaterNode@@UAE@XZ
??1WmiOperatorEqualOrLessNode@@UAE@XZ
??1WmiOperatorGreaterNode@@UAE@XZ
??1WmiOperatorIsANode@@UAE@XZ
??1WmiOperatorLessNode@@UAE@XZ
??1WmiOperatorLikeNode@@UAE@XZ
??1WmiOperatorNode@@UAE@XZ
??1WmiOperatorNotEqualNode@@UAE@XZ
??1WmiOperatorNotIsANode@@UAE@XZ
??1WmiOperatorNotLikeNode@@UAE@XZ
??1WmiOrNode@@UAE@XZ
??1WmiRangeNode@@UAE@XZ
??1WmiSignedIntegerNode@@UAE@XZ
??1WmiSignedIntegerRangeNode@@UAE@XZ
??1WmiStringNode@@UAE@XZ
??1WmiStringRangeNode@@UAE@XZ
??1WmiTreeNode@@UAE@XZ
??1WmiTreeNodeIterator@@UAE@XZ
??1WmiUnsignedIntegerNode@@UAE@XZ
??1WmiUnsignedIntegerRangeNode@@UAE@XZ
??1WmiValueNode@@UAE@XZ
??4CBString@@QAEAAV0@ABV0@@Z
??4CBString@@QAEABV0@PBG@Z
??4Conjunctions@@QAEAAV0@ABV0@@Z
??4Disjunctions@@QAEAAV0@ABV0@@Z
??4PartitionSet@@QAEAAV0@ABV0@@Z
??4ProvAnalyser@@QAEAAV0@ABV0@@Z
??4ProvBitStringType@@QAEAAV0@ABV0@@Z
??4ProvCounter64@@QAEAAVProvValue@@ABV0@@Z
??4ProvCounter64Type@@QAEAAV0@ABV0@@Z
??4ProvCounter@@QAEAAVProvValue@@ABV0@@Z
??4ProvCounterType@@QAEAAV0@ABV0@@Z
??4ProvDateTimeType@@QAEAAV0@ABV0@@Z
??4ProvDebugLog@@QAEAAV0@$$QAV0@@Z
??4ProvDebugLog@@QAEAAV0@ABV0@@Z
??4ProvDisplayStringType@@QAEAAV0@ABV0@@Z
??4ProvEnumeratedType@@QAEAAV0@ABV0@@Z
??4ProvEventObject@@QAEAAV0@ABV0@@Z
??4ProvFixedLengthDisplayStringType@@QAEAAV0@ABV0@@Z
??4ProvFixedLengthOctetStringType@@QAEAAV0@ABV0@@Z
??4ProvFixedLengthOpaqueType@@QAEAAV0@ABV0@@Z
??4ProvFixedLengthPhysAddressType@@QAEAAV0@ABV0@@Z
??4ProvFixedType@@QAEAAV0@ABV0@@Z
??4ProvGauge@@QAEAAVProvValue@@ABV0@@Z
??4ProvGaugeType@@QAEAAV0@ABV0@@Z
??4ProvInstanceType@@QAEAAV0@ABV0@@Z
??4ProvInteger@@QAEAAVProvValue@@ABV0@@Z
??4ProvIntegerType@@QAEAAV0@ABV0@@Z
??4ProvIpAddress@@QAEAAVProvValue@@ABV0@@Z
??4ProvIpAddressType@@QAEAAV0@ABV0@@Z
??4ProvLexicon@@QAEAAV0@ABV0@@Z
??4ProvMacAddressType@@QAEAAV0@ABV0@@Z
??4ProvNegativeRangeType@@QAEAAV0@ABV0@@Z
??4ProvNetworkAddressType@@QAEAAV0@ABV0@@Z
??4ProvNull@@QAEAAVProvValue@@ABV0@@Z
??4ProvNullType@@QAEAAV0@ABV0@@Z
??4ProvOSIAddressType@@QAEAAV0@ABV0@@Z
??4ProvObjectIdentifier@@QAEAAVProvValue@@ABV0@@Z
??4ProvObjectIdentifierType@@QAEAAV0@ABV0@@Z
??4ProvOctetString@@QAEAAVProvValue@@ABV0@@Z
??4ProvOctetStringType@@QAEAAV0@ABV0@@Z
??4ProvOpaque@@QAEAAVProvValue@@ABV0@@Z
??4ProvOpaqueType@@QAEAAV0@ABV0@@Z
??4ProvPhysAddressType@@QAEAAV0@ABV0@@Z
??4ProvPositiveRangeType@@QAEAAV0@ABV0@@Z
??4ProvPositiveRangedType@@QAEAAV0@ABV0@@Z
??4ProvRowStatusType@@QAEAAV0@ABV0@@Z
??4ProvTimeTicks@@QAEAAVProvValue@@ABV0@@Z
??4ProvTimeTicksType@@QAEAAV0@ABV0@@Z
??4ProvUDPAddressType@@QAEAAV0@ABV0@@Z
??4ProvUInteger32@@QAEAAVProvValue@@ABV0@@Z
??4ProvValue@@AAEAAV0@ABV0@@Z
??4QueryPreprocessor@@QAEAAV0@ABV0@@Z
??4WmiAndNode@@QAEAAV0@ABV0@@Z
??4WmiNotNode@@QAEAAV0@ABV0@@Z
??4WmiNullNode@@QAEAAV0@$$QAV0@@Z
??4WmiNullNode@@QAEAAV0@ABV0@@Z
??4WmiNullRangeNode@@QAEAAV0@ABV0@@Z
??4WmiOperatorEqualNode@@QAEAAV0@ABV0@@Z
??4WmiOperatorEqualOrGreaterNode@@QAEAAV0@ABV0@@Z
??4WmiOperatorEqualOrLessNode@@QAEAAV0@ABV0@@Z
??4WmiOperatorGreaterNode@@QAEAAV0@ABV0@@Z
??4WmiOperatorIsANode@@QAEAAV0@ABV0@@Z
??4WmiOperatorLessNode@@QAEAAV0@ABV0@@Z
??4WmiOperatorLikeNode@@QAEAAV0@ABV0@@Z
??4WmiOperatorNode@@QAEAAV0@ABV0@@Z
??4WmiOperatorNotEqualNode@@QAEAAV0@ABV0@@Z
??4WmiOperatorNotIsANode@@QAEAAV0@ABV0@@Z
??4WmiOperatorNotLikeNode@@QAEAAV0@ABV0@@Z
??4WmiOrNode@@QAEAAV0@ABV0@@Z
??4WmiRangeNode@@QAEAAV0@ABV0@@Z
??4WmiSignedIntegerNode@@QAEAAV0@$$QAV0@@Z
??4WmiSignedIntegerNode@@QAEAAV0@ABV0@@Z
??4WmiSignedIntegerRangeNode@@QAEAAV0@$$QAV0@@Z
??4WmiSignedIntegerRangeNode@@QAEAAV0@ABV0@@Z
??4WmiStringNode@@QAEAAV0@ABV0@@Z
??4WmiStringRangeNode@@QAEAAV0@ABV0@@Z
??4WmiTreeNode@@QAEAAV0@ABV0@@Z
??4WmiTreeNodeIterator@@QAEAAV0@ABV0@@Z
??4WmiUnsignedIntegerNode@@QAEAAV0@$$QAV0@@Z
??4WmiUnsignedIntegerNode@@QAEAAV0@ABV0@@Z
??4WmiUnsignedIntegerRangeNode@@QAEAAV0@$$QAV0@@Z
??4WmiUnsignedIntegerRangeNode@@QAEAAV0@ABV0@@Z
??4WmiValueNode@@QAEAAV0@ABV0@@Z
??8ProvInstanceType@@QBEHABV0@@Z
??8ProvObjectIdentifier@@QBEHABV0@@Z
??8ProvValue@@QBEHABV0@@Z
??9ProvInstanceType@@QBEHABV0@@Z
??9ProvObjectIdentifier@@QBEHABV0@@Z
??9ProvValue@@QBEHABV0@@Z
??AProvObjectIdentifier@@QBEAAKK@Z
??BProvAnalyser@@UAEPAXXZ
??BProvInstanceType@@UAEPAXXZ
??BProvPositiveRangedType@@UAEPAXXZ
??HProvObjectIdentifier@@QBE?AV0@ABV0@@Z
??MProvObjectIdentifier@@QBEHABV0@@Z
??NProvObjectIdentifier@@QBEHABV0@@Z
??OProvObjectIdentifier@@QBEHABV0@@Z
??PProvObjectIdentifier@@QBEHABV0@@Z
??RProvIpAddress@@QBEPAXXZ
??RProvObjectIdentifier@@QBEPAXXZ
??RProvOctetString@@QBEPAXXZ
??RProvOpaque@@QBEPAXXZ
??_7PartitionSet@@6B@
??_7ProvAnalyser@@6B@
??_7ProvBitStringType@@6BProvInstanceType@@@
??_7ProvBitStringType@@6BProvPositiveRangedType@@@
??_7ProvCounter64@@6B@
??_7ProvCounter64Type@@6B@
??_7ProvCounter@@6B@
??_7ProvCounterType@@6B@
??_7ProvDateTimeType@@6BProvInstanceType@@@
??_7ProvDateTimeType@@6BProvPositiveRangedType@@@
??_7ProvDisplayStringType@@6BProvInstanceType@@@
??_7ProvDisplayStringType@@6BProvPositiveRangedType@@@
??_7ProvEnumeratedType@@6BProvInstanceType@@@
??_7ProvEnumeratedType@@6BProvNegativeRangedType@@@
??_7ProvEventObject@@6B@
??_7ProvFixedLengthDisplayStringType@@6B@
??_7ProvFixedLengthDisplayStringType@@6BProvInstanceType@@@
??_7ProvFixedLengthDisplayStringType@@6BProvPositiveRangedType@@@
??_7ProvFixedLengthOctetStringType@@6B@
??_7ProvFixedLengthOctetStringType@@6BProvInstanceType@@@
??_7ProvFixedLengthOctetStringType@@6BProvPositiveRangedType@@@
??_7ProvFixedLengthOpaqueType@@6B@
??_7ProvFixedLengthOpaqueType@@6BProvInstanceType@@@
??_7ProvFixedLengthOpaqueType@@6BProvPositiveRangedType@@@
??_7ProvFixedLengthPhysAddressType@@6B@
??_7ProvFixedLengthPhysAddressType@@6BProvInstanceType@@@
??_7ProvFixedLengthPhysAddressType@@6BProvPositiveRangedType@@@
??_7ProvFixedType@@6B@
??_7ProvGauge@@6B@
??_7ProvGaugeType@@6BProvInstanceType@@@
??_7ProvGaugeType@@6BProvPositiveRangedType@@@
??_7ProvInstanceType@@6B@
??_7ProvInteger@@6B@
??_7ProvIntegerType@@6BProvInstanceType@@@
??_7ProvIntegerType@@6BProvNegativeRangedType@@@
??_7ProvIpAddress@@6B@
??_7ProvIpAddressType@@6B@
??_7ProvMacAddressType@@6B@
??_7ProvMacAddressType@@6BProvInstanceType@@@
??_7ProvMacAddressType@@6BProvPositiveRangedType@@@
??_7ProvNegativeRangeType@@6B@
??_7ProvNetworkAddressType@@6B@
??_7ProvNull@@6B@
??_7ProvNullType@@6B@
??_7ProvOSIAddressType@@6BProvInstanceType@@@
??_7ProvOSIAddressType@@6BProvPositiveRangedType@@@
??_7ProvObjectIdentifier@@6B@
??_7ProvObjectIdentifierType@@6B@
??_7ProvOctetString@@6B@
??_7ProvOctetStringType@@6BProvInstanceType@@@
??_7ProvOctetStringType@@6BProvPositiveRangedType@@@
??_7ProvOpaque@@6B@
??_7ProvOpaqueType@@6BProvInstanceType@@@
??_7ProvOpaqueType@@6BProvPositiveRangedType@@@
??_7ProvPhysAddressType@@6BProvInstanceType@@@
??_7ProvPhysAddressType@@6BProvPositiveRangedType@@@
??_7ProvPositiveRangeType@@6B@
??_7ProvPositiveRangedType@@6B@
??_7ProvRowStatusType@@6BProvInstanceType@@@
??_7ProvRowStatusType@@6BProvNegativeRangedType@@@
??_7ProvTimeTicks@@6B@
??_7ProvTimeTicksType@@6B@
??_7ProvUDPAddressType@@6B@
??_7ProvUDPAddressType@@6BProvInstanceType@@@
??_7ProvUDPAddressType@@6BProvPositiveRangedType@@@
??_7ProvUInteger32@@6B@
??_7ProvValue@@6B@
??_7QueryPreprocessor@@6B@
??_7WmiAndNode@@6B@
??_7WmiNotNode@@6B@
??_7WmiNullNode@@6B@
??_7WmiNullRangeNode@@6B@
??_7WmiOperatorEqualNode@@6B@
??_7WmiOperatorEqualOrGreaterNode@@6B@
??_7WmiOperatorEqualOrLessNode@@6B@
??_7WmiOperatorGreaterNode@@6B@
??_7WmiOperatorIsANode@@6B@
??_7WmiOperatorLessNode@@6B@
??_7WmiOperatorLikeNode@@6B@
??_7WmiOperatorNode@@6B@
??_7WmiOperatorNotEqualNode@@6B@
??_7WmiOperatorNotIsANode@@6B@
??_7WmiOperatorNotLikeNode@@6B@
??_7WmiOrNode@@6B@
??_7WmiRangeNode@@6B@
??_7WmiSignedIntegerNode@@6B@
??_7WmiSignedIntegerRangeNode@@6B@
??_7WmiStringNode@@6B@
??_7WmiStringRangeNode@@6B@
??_7WmiTreeNode@@6B@
??_7WmiTreeNodeIterator@@6B@
??_7WmiUnsignedIntegerNode@@6B@
??_7WmiUnsignedIntegerRangeNode@@6B@
??_7WmiValueNode@@6B@
??_FProvAnalyser@@QAEXXZ
??_FProvDisplayStringType@@QAEXXZ
??_FProvEventObject@@QAEXXZ
??_FProvGaugeType@@QAEXXZ
??_FProvInstanceType@@QAEXXZ
??_FProvIntegerType@@QAEXXZ
??_FProvOctetStringType@@QAEXXZ
??_FProvOpaqueType@@QAEXXZ
??_FProvPhysAddressType@@QAEXXZ
??_FProvPositiveRangedType@@QAEXXZ
??_FWmiAndNode@@QAEXXZ
??_FWmiNotNode@@QAEXXZ
??_FWmiOperatorEqualNode@@QAEXXZ
??_FWmiOperatorEqualOrGreaterNode@@QAEXXZ
??_FWmiOperatorEqualOrLessNode@@QAEXXZ
??_FWmiOperatorGreaterNode@@QAEXXZ
??_FWmiOperatorIsANode@@QAEXXZ
??_FWmiOperatorLessNode@@QAEXXZ
??_FWmiOperatorLikeNode@@QAEXXZ
??_FWmiOperatorNotEqualNode@@QAEXXZ
??_FWmiOperatorNotIsANode@@QAEXXZ
??_FWmiOperatorNotLikeNode@@QAEXXZ
??_FWmiOrNode@@QAEXXZ
??_FWmiTreeNode@@QAEXXZ
?AllocInfiniteRangeNode@QueryPreprocessor@@MAEPAVWmiRangeNode@@PAXPAG@Z
?AllocTypeNode@QueryPreprocessor@@MAEPAVWmiTreeNode@@PAXPAGAAUtagVARIANT@@W4WmiValueFunction@WmiValueNode@@3PAV2@@Z
?Analyse@ProvAnalyser@@MAEHPAVProvLexicon@@AAKGPBG1HHH@Z
?BitStringDef@ProvBitStringType@@AAEHXZ
?Check@ProvPositiveRangedType@@QAEHABK@Z
?Clear@ProvEventObject@@QAEXXZ
?ClosedLowerBound@WmiRangeNode@@QAEHXZ
?ClosedUpperBound@WmiRangeNode@@QAEHXZ
?Closedown@ProvDebugLog@@SGXXZ
?Compare@ProvObjectIdentifier@@IBE?AW4Comparison@1@ABV1@0@Z
?ComparePropertyName@WmiRangeNode@@QAEJAAV1@@Z
?ComparePropertyName@WmiValueNode@@QAEJAAV1@@Z
?Complete@ProvEventObject@@UAEXXZ
?ConvertToRanges@QueryPreprocessor@@IAE?AW4WmiTriState@@AAPAVWmiTreeNode@@@Z
?Copy@ProvBitStringType@@UBEPAVProvInstanceType@@XZ
?Copy@ProvCounter64@@UBEPAVProvValue@@XZ
?Copy@ProvCounter64Type@@UBEPAVProvInstanceType@@XZ
?Copy@ProvCounter@@UBEPAVProvValue@@XZ
?Copy@ProvCounterType@@UBEPAVProvInstanceType@@XZ
?Copy@ProvDateTimeType@@UBEPAVProvInstanceType@@XZ
?Copy@ProvDisplayStringType@@UBEPAVProvInstanceType@@XZ
?Copy@ProvEnumeratedType@@UBEPAVProvInstanceType@@XZ
?Copy@ProvFixedLengthDisplayStringType@@UBEPAVProvInstanceType@@XZ
?Copy@ProvFixedLengthOctetStringType@@UBEPAVProvInstanceType@@XZ
?Copy@ProvFixedLengthOpaqueType@@UBEPAVProvInstanceType@@XZ
?Copy@ProvFixedLengthPhysAddressType@@UBEPAVProvInstanceType@@XZ
?Copy@ProvGauge@@UBEPAVProvValue@@XZ
?Copy@ProvGaugeType@@UBEPAVProvInstanceType@@XZ
?Copy@ProvInteger@@UBEPAVProvValue@@XZ
?Copy@ProvIntegerType@@UBEPAVProvInstanceType@@XZ
?Copy@ProvIpAddress@@UBEPAVProvValue@@XZ
?Copy@ProvIpAddressType@@UBEPAVProvInstanceType@@XZ
?Copy@ProvMacAddressType@@UBEPAVProvInstanceType@@XZ
?Copy@ProvNegativeRangeType@@UAEPAV1@XZ
?Copy@ProvNetworkAddressType@@UBEPAVProvInstanceType@@XZ
?Copy@ProvNull@@UBEPAVProvValue@@XZ
?Copy@ProvNullType@@UBEPAVProvInstanceType@@XZ
?Copy@ProvOSIAddressType@@UBEPAVProvInstanceType@@XZ
?Copy@ProvObjectIdentifier@@UBEPAVProvValue@@XZ
?Copy@ProvObjectIdentifierType@@UBEPAVProvInstanceType@@XZ
?Copy@ProvOctetString@@UBEPAVProvValue@@XZ
?Copy@ProvOctetStringType@@UBEPAVProvInstanceType@@XZ
?Copy@ProvOpaque@@UBEPAVProvValue@@XZ
?Copy@ProvOpaqueType@@UBEPAVProvInstanceType@@XZ
?Copy@ProvPhysAddressType@@UBEPAVProvInstanceType@@XZ
?Copy@ProvPositiveRangeType@@UAEPAV1@XZ
?Copy@ProvRowStatusType@@UBEPAVProvInstanceType@@XZ
?Copy@ProvTimeTicks@@UBEPAVProvValue@@XZ
?Copy@ProvTimeTicksType@@UBEPAVProvInstanceType@@XZ
?Copy@ProvUDPAddressType@@UBEPAVProvInstanceType@@XZ
?Copy@ProvUInteger32@@UBEPAVProvValue@@XZ
?Copy@WmiAndNode@@UAEPAVWmiTreeNode@@XZ
?Copy@WmiNotNode@@UAEPAVWmiTreeNode@@XZ
?Copy@WmiNullNode@@UAEPAVWmiTreeNode@@XZ
?Copy@WmiNullRangeNode@@UAEPAVWmiTreeNode@@XZ
?Copy@WmiOperatorEqualNode@@UAEPAVWmiTreeNode@@XZ
?Copy@WmiOperatorEqualOrGreaterNode@@UAEPAVWmiTreeNode@@XZ
?Copy@WmiOperatorEqualOrLessNode@@UAEPAVWmiTreeNode@@XZ
?Copy@WmiOperatorGreaterNode@@UAEPAVWmiTreeNode@@XZ
?Copy@WmiOperatorIsANode@@UAEPAVWmiTreeNode@@XZ
?Copy@WmiOperatorLessNode@@UAEPAVWmiTreeNode@@XZ
?Copy@WmiOperatorLikeNode@@UAEPAVWmiTreeNode@@XZ
?Copy@WmiOperatorNotEqualNode@@UAEPAVWmiTreeNode@@XZ
?Copy@WmiOperatorNotIsANode@@UAEPAVWmiTreeNode@@XZ
?Copy@WmiOperatorNotLikeNode@@UAEPAVWmiTreeNode@@XZ
?Copy@WmiOrNode@@UAEPAVWmiTreeNode@@XZ
?Copy@WmiSignedIntegerNode@@UAEPAVWmiTreeNode@@XZ
?Copy@WmiSignedIntegerRangeNode@@UAEPAVWmiTreeNode@@XZ
?Copy@WmiStringNode@@UAEPAVWmiTreeNode@@XZ
?Copy@WmiStringRangeNode@@UAEPAVWmiTreeNode@@XZ
?Copy@WmiTreeNode@@UAEPAV1@XZ
?Copy@WmiTreeNodeIterator@@UAEPAV1@XZ
?Copy@WmiUnsignedIntegerNode@@UAEPAVWmiTreeNode@@XZ
?Copy@WmiUnsignedIntegerRangeNode@@UAEPAVWmiTreeNode@@XZ
?CopyNode@WmiTreeNode@@UAEPAV1@XZ
?CountDisjunctions@QueryPreprocessor@@IAEXPAVWmiTreeNode@@AAK@Z
?CreateDisjunctionContainer@QueryPreprocessor@@IAE?AW4WmiTriState@@PAXPAVWmiTreeNode@@KPAPAGAAPAVDisjunctions@@@Z
?CreateDisjunctions@QueryPreprocessor@@IAE?AW4WmiTriState@@PAXPAVWmiTreeNode@@PAVDisjunctions@@KPAPAGAAK@Z
?CreateLexicon@ProvAnalyser@@MAEPAVProvLexicon@@XZ
?CreatePartitionSet@QueryPreprocessor@@IAE?AW4WmiTriState@@PAVDisjunctions@@AAPAVPartitionSet@@@Z
?Cut@ProvObjectIdentifier@@QBEPAV1@AAV1@@Z
?DateTimeDef@ProvDateTimeType@@AAEHXZ
?DbcsToUnicodeString@@YGPAGPBD@Z
?DecCharToDecInteger@ProvAnalyser@@SGKD@Z
?DecIntegerToDecChar@ProvAnalyser@@SGDE@Z
?DecIntegerToDecWChar@ProvAnalyser@@SGGE@Z
?DecIntegerToHexChar@ProvAnalyser@@SGDE@Z
?DecIntegerToHexWChar@ProvAnalyser@@SGGE@Z
?DecIntegerToOctChar@ProvAnalyser@@SGDE@Z
?DecIntegerToOctWChar@ProvAnalyser@@SGGE@Z
?DecWCharToDecInteger@ProvAnalyser@@SGKG@Z
?DisjunctiveNormalForm@QueryPreprocessor@@IAE?AW4QuadState@1@AAPAVWmiTreeNode@@@Z
?Encode@ProvDateTimeType@@AAEXABK0000000000@Z
?EnumerationDef@ProvEnumeratedType@@AAEHXZ
?Equivalent@ProvCounter64@@MBEHABVProvValue@@@Z
?Equivalent@ProvCounter64@@QBEHABV1@@Z
?Equivalent@ProvCounter64Type@@MBEHABVProvInstanceType@@@Z
?Equivalent@ProvCounter@@MBEHABVProvValue@@@Z
?Equivalent@ProvCounter@@QBEHABV1@@Z
?Equivalent@ProvCounterType@@MBEHABVProvInstanceType@@@Z
?Equivalent@ProvGauge@@MBEHABVProvValue@@@Z
?Equivalent@ProvGauge@@QBEHABV1@@Z
?Equivalent@ProvGaugeType@@MBEHABVProvInstanceType@@@Z
?Equivalent@ProvInteger@@MBEHABVProvValue@@@Z
?Equivalent@ProvInteger@@QBEHABV1@@Z
?Equivalent@ProvIntegerType@@MBEHABVProvInstanceType@@@Z
?Equivalent@ProvIpAddress@@MBEHABVProvValue@@@Z
?Equivalent@ProvIpAddress@@QBEHABV1@@Z
?Equivalent@ProvIpAddressType@@MBEHABVProvInstanceType@@@Z
?Equivalent@ProvNetworkAddressType@@MBEHABVProvInstanceType@@@Z
?Equivalent@ProvNull@@MBEHABVProvValue@@@Z
?Equivalent@ProvNullType@@MBEHABVProvInstanceType@@@Z
?Equivalent@ProvObjectIdentifier@@IBEHABV1@@Z
?Equivalent@ProvObjectIdentifier@@MBEHABVProvValue@@@Z
?Equivalent@ProvObjectIdentifier@@QBEHABV1@K@Z
?Equivalent@ProvObjectIdentifierType@@MBEHABVProvInstanceType@@@Z
?Equivalent@ProvOctetString@@MBEHABVProvValue@@@Z
?Equivalent@ProvOctetString@@QBEHABV1@@Z
?Equivalent@ProvOctetStringType@@MBEHABVProvInstanceType@@@Z
?Equivalent@ProvOpaque@@MBEHABVProvValue@@@Z
?Equivalent@ProvOpaque@@QBEHABV1@@Z
?Equivalent@ProvOpaqueType@@MBEHABVProvInstanceType@@@Z
?Equivalent@ProvTimeTicks@@MBEHABVProvValue@@@Z
?Equivalent@ProvTimeTicks@@QBEHABV1@@Z
?Equivalent@ProvTimeTicksType@@MBEHABVProvInstanceType@@@Z
?Equivalent@ProvUInteger32@@MBEHABVProvValue@@@Z
?Equivalent@ProvUInteger32@@QBEHABV1@@Z
?Evaluate@QueryPreprocessor@@IAEHPAXAAUSQL_LEVEL_1_RPN_EXPRESSION@@PAPAVWmiTreeNode@@@Z
?EvaluateAndExpression@QueryPreprocessor@@IAE?AW4WmiTriState@@AAPAVWmiTreeNode@@@Z
?EvaluateNotEqualExpression@QueryPreprocessor@@IAE?AW4WmiTriState@@AAPAVWmiTreeNode@@@Z
?EvaluateNotExpression@QueryPreprocessor@@IAE?AW4WmiTriState@@AAPAVWmiTreeNode@@@Z
?EvaluateOrExpression@QueryPreprocessor@@IAE?AW4WmiTriState@@AAPAVWmiTreeNode@@@Z
?Get@ProvAnalyser@@QAEPAVProvLexicon@@HHH@Z
?Get@ProvBitStringType@@AAEPAVProvLexicon@@XZ
?Get@ProvDateTimeType@@AAEPAVProvLexicon@@XZ
?Get@ProvEnumeratedType@@AAEPAVProvLexicon@@XZ
?Get@ProvPositiveRangedType@@IAEPAVProvLexicon@@XZ
?GetAllocatedString@ProvObjectIdentifier@@QBEPADXZ
?GetConjunctionCount@Disjunctions@@QAEKXZ
?GetConstantFunction@WmiValueNode@@QAE?AW4WmiValueFunction@1@XZ
?GetData@WmiTreeNode@@QAEPAXXZ
?GetData@WmiTreeNode@@QAEXPAPAX@Z
?GetDisjunction@Disjunctions@@QAEPAVConjunctions@@K@Z
?GetDisjunctionCount@Disjunctions@@QAEKXZ
?GetHandle@ProvEventObject@@QAEPAXXZ
?GetHighValue@ProvCounter64@@QBEKXZ
?GetIndex@WmiRangeNode@@QAEKXZ
?GetIndex@WmiValueNode@@QAEKXZ
?GetIntersectingRange@WmiSignedIntegerRangeNode@@QAE?AW4WmiTriState@@AAV1@AAPAV1@@Z
?GetIntersectingRange@WmiStringRangeNode@@QAE?AW4WmiTriState@@AAV1@AAPAV1@@Z
?GetIntersectingRange@WmiUnsignedIntegerRangeNode@@QAE?AW4WmiTriState@@AAV1@AAPAV1@@Z
?GetIterator@WmiTreeNodeIterator@@QAEPAVWmiTreeNode@@XZ
?GetKeyIndex@PartitionSet@@QAEKXZ
?GetLeft@WmiTreeNode@@QAEPAV1@XZ
?GetLeft@WmiTreeNode@@QAEXAAPAPAV1@@Z
?GetLevel@ProvDebugLog@@QAEKXZ
?GetLogging@ProvDebugLog@@QAEHXZ
?GetLowValue@ProvCounter64@@QBEKXZ
?GetLowerBound@ProvNegativeRangeType@@QAEJXZ
?GetLowerBound@ProvPositiveRangeType@@QAEKXZ
?GetOverlappingRange@WmiSignedIntegerRangeNode@@QAE?AW4WmiTriState@@AAV1@AAPAV1@@Z
?GetOverlappingRange@WmiStringRangeNode@@QAE?AW4WmiTriState@@AAV1@AAPAV1@@Z
?GetOverlappingRange@WmiUnsignedIntegerRangeNode@@QAE?AW4WmiTriState@@AAV1@AAPAV1@@Z
?GetParent@WmiTreeNode@@QAEPAV1@XZ
?GetParent@WmiTreeNode@@QAEXAAPAPAV1@@Z
?GetPartition@PartitionSet@@QAEPAV1@K@Z
?GetPartitionCount@PartitionSet@@QAEKXZ
?GetPropertyFunction@WmiValueNode@@QAE?AW4WmiValueFunction@1@XZ
?GetPropertyName@WmiRangeNode@@QAEPAGXZ
?GetPropertyName@WmiValueNode@@QAEPAGXZ
?GetProvDebugLog@ProvDebugLog@@SGPAV1@D@Z
?GetRange@Conjunctions@@QAEPAVWmiRangeNode@@K@Z
?GetRange@PartitionSet@@QAEPAVWmiRangeNode@@XZ
?GetRange@WmiOperatorEqualNode@@UAEPAVWmiRangeNode@@XZ
?GetRange@WmiOperatorEqualOrGreaterNode@@UAEPAVWmiRangeNode@@XZ
?GetRange@WmiOperatorEqualOrLessNode@@UAEPAVWmiRangeNode@@XZ
?GetRange@WmiOperatorGreaterNode@@UAEPAVWmiRangeNode@@XZ
?GetRange@WmiOperatorIsANode@@UAEPAVWmiRangeNode@@XZ
?GetRange@WmiOperatorLessNode@@UAEPAVWmiRangeNode@@XZ
?GetRange@WmiOperatorLikeNode@@UAEPAVWmiRangeNode@@XZ
?GetRange@WmiOperatorNotEqualNode@@UAEPAVWmiRangeNode@@XZ
?GetRange@WmiOperatorNotIsANode@@UAEPAVWmiRangeNode@@XZ
?GetRange@WmiOperatorNotLikeNode@@UAEPAVWmiRangeNode@@XZ
?GetRangeCount@Conjunctions@@QAEKXZ
?GetRight@WmiTreeNode@@QAEPAV1@XZ
?GetRight@WmiTreeNode@@QAEXAAPAPAV1@@Z
?GetRowStatus@ProvRowStatusType@@QBE?AW4ProvRowStatusEnum@1@XZ
?GetString@CBString@@QAEPAGXZ
?GetStringValue@ProvBitStringType@@UBEPAGXZ
?GetStringValue@ProvCounter64Type@@UBEPAGXZ
?GetStringValue@ProvCounterType@@UBEPAGXZ
?GetStringValue@ProvDateTimeType@@UBEPAGXZ
?GetStringValue@ProvDisplayStringType@@UBEPAGXZ
?GetStringValue@ProvEnumeratedType@@UBEPAGXZ
?GetStringValue@ProvFixedLengthDisplayStringType@@UBEPAGXZ
?GetStringValue@ProvFixedLengthPhysAddressType@@UBEPAGXZ
?GetStringValue@ProvGaugeType@@UBEPAGXZ
?GetStringValue@ProvIntegerType@@UBEPAGXZ
?GetStringValue@ProvIpAddressType@@UBEPAGXZ
?GetStringValue@ProvMacAddressType@@UBEPAGXZ
?GetStringValue@ProvNetworkAddressType@@UBEPAGXZ
?GetStringValue@ProvNullType@@UBEPAGXZ
?GetStringValue@ProvOSIAddressType@@UBEPAGXZ
?GetStringValue@ProvObjectIdentifierType@@UBEPAGXZ
?GetStringValue@ProvOctetStringType@@UBEPAGXZ
?GetStringValue@ProvOpaqueType@@UBEPAGXZ
?GetStringValue@ProvPhysAddressType@@UBEPAGXZ
?GetStringValue@ProvRowStatusType@@UBEPAGXZ
?GetStringValue@ProvTimeTicksType@@UBEPAGXZ
?GetStringValue@ProvUDPAddressType@@UBEPAGXZ
?GetToken@ProvAnalyser@@AAEPAVProvLexicon@@HHH@Z
?GetToken@ProvLexicon@@QAE?AW4LexiconToken@1@XZ
?GetType@WmiTreeNode@@QAEKXZ
?GetUpperBound@ProvNegativeRangeType@@QAEJXZ
?GetUpperBound@ProvPositiveRangeType@@QAEKXZ
?GetValue@ProvBitStringType@@QBEKAAPAPAG@Z
?GetValue@ProvCounter64Type@@QBEXAAK0@Z
?GetValue@ProvCounter@@QBEKXZ
?GetValue@ProvCounterType@@QBEKXZ
?GetValue@ProvDateTimeType@@QBEPAGXZ
?GetValue@ProvDisplayStringType@@QBEPAGXZ
?GetValue@ProvEnumeratedType@@QBEPAGXZ
?GetValue@ProvFixedLengthDisplayStringType@@QBEPAGXZ
?GetValue@ProvGauge@@QBEKXZ
?GetValue@ProvGaugeType@@QBEKXZ
?GetValue@ProvInteger@@QBEJXZ
?GetValue@ProvIntegerType@@QBEJXZ
?GetValue@ProvIpAddress@@QBEKXZ
?GetValue@ProvIpAddressType@@QBEKXZ
?GetValue@ProvLexicon@@QAEPATProvLexiconValue@@XZ
?GetValue@ProvNetworkAddressType@@QBEKXZ
?GetValue@ProvObjectIdentifier@@QBEPAKXZ
?GetValue@ProvObjectIdentifierType@@QBEPAKXZ
?GetValue@ProvOctetString@@QBEPAEXZ
?GetValue@ProvOctetStringType@@QBEPAEXZ
?GetValue@ProvOpaque@@QBEPAEXZ
?GetValue@ProvOpaqueType@@QBEPAEXZ
?GetValue@ProvRowStatusType@@QBEPAGXZ
?GetValue@ProvTimeTicks@@QBEKXZ
?GetValue@ProvTimeTicksType@@QBEKXZ
?GetValue@ProvUInteger32@@QBEKXZ
?GetValue@WmiSignedIntegerNode@@QAEJXZ
?GetValue@WmiStringNode@@QAEPAGXZ
?GetValue@WmiUnsignedIntegerNode@@QAEKXZ
?GetValueLength@ProvObjectIdentifier@@QBEKXZ
?GetValueLength@ProvObjectIdentifierType@@QBEKXZ
?GetValueLength@ProvOctetString@@QBEKXZ
?GetValueLength@ProvOctetStringType@@QBEKXZ
?GetValueLength@ProvOpaque@@QBEKXZ
?GetValueLength@ProvOpaqueType@@QBEKXZ
?HexCharToDecInteger@ProvAnalyser@@SGKD@Z
?HexWCharToDecInteger@ProvAnalyser@@SGKG@Z
?InfiniteLowerBound@WmiRangeNode@@QAEHXZ
?InfiniteUpperBound@WmiRangeNode@@QAEHXZ
?Initialise@ProvAnalyser@@MAEXXZ
?Initialize@Conjunctions@@QAE?AW4WmiTriState@@XZ
?Initialize@Disjunctions@@QAE?AW4WmiTriState@@XZ
?Initialize@PartitionSet@@QAE?AW4WmiTriState@@K@Z
?Initialize@ProvObjectIdentifier@@MAEXPBKK@Z
?Initialize@ProvOctetString@@MAEXPBEK@Z
?InsertNode@QueryPreprocessor@@IAE?AW4WmiTriState@@AAPAVWmiTreeNode@@0@Z
?InvariantEvaluate@QueryPreprocessor@@MAE?AW4QuadState@1@PAXPAVWmiTreeNode@@1@Z
?IsAlpha@ProvAnalyser@@SGHG@Z
?IsAlphaNumeric@ProvAnalyser@@SGHG@Z
?IsDecimal@ProvAnalyser@@SGHG@Z
?IsEof@ProvAnalyser@@SGHG@Z
?IsHex@ProvAnalyser@@SGHG@Z
?IsLeadingDecimal@ProvAnalyser@@SGHG@Z
?IsNull@ProvInstanceType@@UBEHXZ
?IsOctal@ProvAnalyser@@SGHG@Z
?IsProvV1Type@ProvCounter64Type@@UBEHXZ
?IsProvV1Type@ProvInstanceType@@UBEHXZ
?IsProvV2CType@ProvInstanceType@@UBEHXZ
?IsProvV2CType@ProvNullType@@UBEHXZ
?IsValid@ProvInstanceType@@UBEHXZ
?IsValid@ProvPositiveRangedType@@QAEHXZ
?IsWhitespace@ProvAnalyser@@SGHG@Z
?Leaf@PartitionSet@@QAEHXZ
?LexicographicallyAfter@WmiSignedIntegerNode@@QAEHAAJ@Z
?LexicographicallyAfter@WmiStringNode@@QAEHAAPAG@Z
?LexicographicallyAfter@WmiUnsignedIntegerNode@@QAEHAAK@Z
?LexicographicallyBefore@WmiSignedIntegerNode@@QAEHAAJ@Z
?LexicographicallyBefore@WmiStringNode@@QAEHAAPAG@Z
?LexicographicallyBefore@WmiUnsignedIntegerNode@@QAEHAAK@Z
?LowerBound@WmiSignedIntegerRangeNode@@QAEJXZ
?LowerBound@WmiStringRangeNode@@QAEPAGXZ
?LowerBound@WmiUnsignedIntegerRangeNode@@QAEKXZ
?Match@ProvBitStringType@@AAEPAVProvLexicon@@W4LexiconToken@2@@Z
?Match@ProvDateTimeType@@AAEPAVProvLexicon@@W4LexiconToken@2@@Z
?Match@ProvEnumeratedType@@AAEPAVProvLexicon@@W4LexiconToken@2@@Z
?Match@ProvPositiveRangedType@@IAEPAVProvLexicon@@W4LexiconToken@2@@Z
?OctCharToDecInteger@ProvAnalyser@@SGKD@Z
?OctWCharToDecInteger@ProvAnalyser@@SGKG@Z
?OverWrite@ProvObjectIdentifier@@AAEXPBK@Z
?OverWrite@ProvOctetString@@AAEXPBE@Z
?Parse@ProvBitStringType@@AAEHPBG@Z
?Parse@ProvCounter64Type@@IAEHPBG@Z
?Parse@ProvCounterType@@IAEHPBG@Z
?Parse@ProvDateTimeType@@AAEHPBG@Z
?Parse@ProvEnumeratedType@@AAEHPBG@Z
?Parse@ProvFixedLengthPhysAddressType@@IAEHPBG@Z
?Parse@ProvGaugeType@@IAEHPBG@Z
?Parse@ProvIntegerType@@IAEHPBG@Z
?Parse@ProvIpAddressType@@IAEHPBG@Z
?Parse@ProvMacAddressType@@IAEHPBG@Z
?Parse@ProvNetworkAddressType@@IAEHPBG@Z
?Parse@ProvOSIAddressType@@IAEHPBG@Z
?Parse@ProvObjectIdentifierType@@IAEHPBG@Z
?Parse@ProvOctetStringType@@IAEHPBG@Z
?Parse@ProvOpaqueType@@IAEHPBG@Z
?Parse@ProvPhysAddressType@@IAEHPBG@Z
?Parse@ProvPositiveRangedType@@IAEHPBG@Z
?Parse@ProvTimeTicksType@@IAEHPBG@Z
?Parse@ProvUDPAddressType@@IAEHPBG@Z
?PreProcess@QueryPreprocessor@@QAE?AW4QuadState@1@PAXPAUSQL_LEVEL_1_RPN_EXPRESSION@@AAPAVWmiTreeNode@@@Z
?PreProcess@QueryPreprocessor@@QAE?AW4QuadState@1@PAXPAUSQL_LEVEL_1_RPN_EXPRESSION@@PAVWmiTreeNode@@KPAPAGAAPAVPartitionSet@@@Z
?Prefix@ProvObjectIdentifier@@QBEHKAAV1@@Z
?Print@WmiAndNode@@UAEXXZ
?Print@WmiNotNode@@UAEXXZ
?Print@WmiNullNode@@UAEXXZ
?Print@WmiNullRangeNode@@UAEXXZ
?Print@WmiOperatorEqualNode@@UAEXXZ
?Print@WmiOperatorEqualOrGreaterNode@@UAEXXZ
?Print@WmiOperatorEqualOrLessNode@@UAEXXZ
?Print@WmiOperatorGreaterNode@@UAEXXZ
?Print@WmiOperatorIsANode@@UAEXXZ
?Print@WmiOperatorLessNode@@UAEXXZ
?Print@WmiOperatorLikeNode@@UAEXXZ
?Print@WmiOperatorNotEqualNode@@UAEXXZ
?Print@WmiOperatorNotIsANode@@UAEXXZ
?Print@WmiOperatorNotLikeNode@@UAEXXZ
?Print@WmiOrNode@@UAEXXZ
?Print@WmiSignedIntegerNode@@UAEXXZ
?Print@WmiSignedIntegerRangeNode@@UAEXXZ
?Print@WmiStringNode@@UAEXXZ
?Print@WmiStringRangeNode@@UAEXXZ
?Print@WmiTreeNode@@UAEXXZ
?Print@WmiUnsignedIntegerNode@@UAEXXZ
?Print@WmiUnsignedIntegerRangeNode@@UAEXXZ
?PrintTree@QueryPreprocessor@@IAEXPAVWmiTreeNode@@@Z
?Process@ProvEventObject@@UAEXXZ
?PushBack@ProvBitStringType@@AAEXXZ
?PushBack@ProvDateTimeType@@AAEXXZ
?PushBack@ProvEnumeratedType@@AAEXXZ
?PushBack@ProvPositiveRangedType@@IAEXXZ
?PutBack@ProvAnalyser@@QAEXPBVProvLexicon@@@Z
?Query@QueryPreprocessor@@QAE?AW4QuadState@1@PAGAAPAUSQL_LEVEL_1_RPN_EXPRESSION@@@Z
?QuickSort@QueryPreprocessor@@IAEXPAPAVWmiRangeNode@@PAKK@Z
?RangeDef@ProvPositiveRangedType@@IAEHXZ
?RecursiveConvertToRanges@QueryPreprocessor@@IAE?AW4WmiTriState@@AAPAVWmiTreeNode@@@Z
?RecursiveDef@ProvBitStringType@@AAEHXZ
?RecursiveDef@ProvEnumeratedType@@AAEHXZ
?RecursiveDef@ProvPositiveRangedType@@IAEHXZ
?RecursiveDisjunctiveNormalForm@QueryPreprocessor@@IAE?AW4QuadState@1@AAPAVWmiTreeNode@@@Z
?RecursiveEvaluate@QueryPreprocessor@@IAEHPAXAAUSQL_LEVEL_1_RPN_EXPRESSION@@PAVWmiTreeNode@@PAPAV3@AAH@Z
?RecursiveInsertNode@QueryPreprocessor@@IAE?AW4WmiTriState@@AAPAVWmiTreeNode@@0@Z
?RecursivePartitionSet@QueryPreprocessor@@IAE?AW4WmiTriState@@PAVDisjunctions@@AAPAVPartitionSet@@KPAKK@Z
?RecursiveQuickSort@QueryPreprocessor@@IAEXPAPAVWmiRangeNode@@PAKKK@Z
?RecursiveRemoveInvariants@QueryPreprocessor@@IAE?AW4QuadState@1@PAXAAPAVWmiTreeNode@@@Z
?RecursiveRemoveNonOverlappingRanges@QueryPreprocessor@@IAE?AW4QuadState@1@AAPAVWmiTreeNode@@0@Z
?RecursiveSort@QueryPreprocessor@@IAE?AW4WmiTriState@@AAPAVWmiTreeNode@@@Z
?RecursiveSortConditionals@QueryPreprocessor@@IAE?AW4WmiTriState@@AAPAVWmiTreeNode@@0@Z
?RemoveInvariants@QueryPreprocessor@@IAE?AW4QuadState@1@PAXAAPAVWmiTreeNode@@@Z
?RemoveNonOverlappingRanges@QueryPreprocessor@@IAE?AW4QuadState@1@AAPAVWmiTreeNode@@@Z
?RemoveOverlaps@QueryPreprocessor@@IAE?AW4WmiTriState@@PAKK00PAPAVWmiRangeNode@@@Z
?Replicate@ProvObjectIdentifier@@MBEPAKPBKK0K@Z
?Replicate@ProvObjectIdentifier@@MBEPAKPBKK@Z
?Replicate@ProvOctetString@@MAEPAEPBEK@Z
?Root@PartitionSet@@QAEHXZ
?Set@ProvAnalyser@@QAEXPBG@Z
?Set@ProvEventObject@@QAEXXZ
?SetData@WmiTreeNode@@QAEPAXPAX@Z
?SetIterator@WmiTreeNodeIterator@@QAEPAVWmiTreeNode@@PAV2@@Z
?SetKeyIndex@PartitionSet@@QAEXK@Z
?SetLeft@WmiTreeNode@@QAEPAV1@PAV1@@Z
?SetLowerBound@ProvNegativeRangeType@@QAEXABJ@Z
?SetLowerBound@ProvPositiveRangeType@@QAEXABK@Z
?SetNull@ProvInstanceType@@QAEXH@Z
?SetParent@WmiTreeNode@@QAEPAV1@PAV1@@Z
?SetPartition@PartitionSet@@QAEXKPAV1@@Z
?SetRange@Conjunctions@@QAEXKPAVWmiRangeNode@@@Z
?SetRange@PartitionSet@@QAEXPAVWmiRangeNode@@@Z
?SetRight@WmiTreeNode@@QAEPAV1@PAV1@@Z
?SetStatus@ProvInstanceType@@QAEXH@Z
?SetStatus@ProvPositiveRangedType@@QAEXABH@Z
?SetToken@ProvLexicon@@QAEXW4LexiconToken@1@@Z
?SetType@WmiTreeNode@@QAEXK@Z
?SetUpperBound@ProvNegativeRangeType@@QAEXABJ@Z
?SetUpperBound@ProvPositiveRangeType@@QAEXABK@Z
?SetValue@ProvCounter64@@QAEXKK@Z
?SetValue@ProvCounter@@QAEXK@Z
?SetValue@ProvGauge@@QAEXK@Z
?SetValue@ProvInteger@@QAEXJ@Z
?SetValue@ProvIpAddress@@QAEXK@Z
?SetValue@ProvObjectIdentifier@@QAEXPBKK@Z
?SetValue@ProvOctetString@@QAEXPBEK@Z
?SetValue@ProvOpaque@@QAEXPBEK@Z
?SetValue@ProvTimeTicks@@QAEXK@Z
?SetValue@ProvUInteger32@@QAEXK@Z
?Sort@QueryPreprocessor@@IAE?AW4WmiTriState@@AAPAVWmiTreeNode@@@Z
?SortConditionals@QueryPreprocessor@@IAE?AW4WmiTriState@@AAPAVWmiTreeNode@@@Z
?SortRanges@QueryPreprocessor@@IAEXKPAKPAPAVWmiRangeNode@@@Z
?Startup@ProvDebugLog@@SGHXZ
?Suffix@ProvObjectIdentifier@@QBEHKAAV1@@Z
?TransformAndOrExpression@QueryPreprocessor@@IAEXAAPAVWmiTreeNode@@PAV2@1@Z
?TransformAndTrueEvaluation@QueryPreprocessor@@IAEXAAPAVWmiTreeNode@@PAV2@@Z
?TransformIntersectingRange@QueryPreprocessor@@IAEXAAPAVWmiTreeNode@@PAV2@1@Z
?TransformNonIntersectingRange@QueryPreprocessor@@IAEXAAPAVWmiTreeNode@@PAV2@@Z
?TransformNotAndExpression@QueryPreprocessor@@IAEXAAPAVWmiTreeNode@@PAV2@@Z
?TransformNotEqualExpression@QueryPreprocessor@@IAEXAAPAVWmiTreeNode@@PAV2@@Z
?TransformNotNotExpression@QueryPreprocessor@@IAEXAAPAVWmiTreeNode@@PAV2@@Z
?TransformNotOperatorEqualExpression@QueryPreprocessor@@IAEXAAPAVWmiTreeNode@@PAV2@@Z
?TransformNotOperatorEqualOrGreaterExpression@QueryPreprocessor@@IAEXAAPAVWmiTreeNode@@PAV2@@Z
?TransformNotOperatorEqualOrLessExpression@QueryPreprocessor@@IAEXAAPAVWmiTreeNode@@PAV2@@Z
?TransformNotOperatorGreaterExpression@QueryPreprocessor@@IAEXAAPAVWmiTreeNode@@PAV2@@Z
?TransformNotOperatorIsAExpression@QueryPreprocessor@@IAEXAAPAVWmiTreeNode@@PAV2@@Z
?TransformNotOperatorLessExpression@QueryPreprocessor@@IAEXAAPAVWmiTreeNode@@PAV2@@Z
?TransformNotOperatorLikeExpression@QueryPreprocessor@@IAEXAAPAVWmiTreeNode@@PAV2@@Z
?TransformNotOperatorNotEqualExpression@QueryPreprocessor@@IAEXAAPAVWmiTreeNode@@PAV2@@Z
?TransformNotOperatorNotIsAExpression@QueryPreprocessor@@IAEXAAPAVWmiTreeNode@@PAV2@@Z
?TransformNotOperatorNotLikeExpression@QueryPreprocessor@@IAEXAAPAVWmiTreeNode@@PAV2@@Z
?TransformNotOrExpression@QueryPreprocessor@@IAEXAAPAVWmiTreeNode@@PAV2@@Z
?TransformOperatorToRange@QueryPreprocessor@@IAEXAAPAVWmiTreeNode@@@Z
?TransformOrFalseEvaluation@QueryPreprocessor@@IAEXAAPAVWmiTreeNode@@PAV2@@Z
?UnReplicate@ProvObjectIdentifier@@MAEXPAK@Z
?UnReplicate@ProvOctetString@@MAEXPAE@Z
?UnicodeStringAppend@@YGPAGPBG0@Z
?UnicodeStringDuplicate@@YGPAGPBG@Z
?UnicodeToDbcsString@@YGPADPBG@Z
?UpperBound@WmiSignedIntegerRangeNode@@QAEJXZ
?UpperBound@WmiStringRangeNode@@QAEPAGXZ
?UpperBound@WmiUnsignedIntegerRangeNode@@QAEKXZ
?Wait@ProvEventObject@@UAEHXZ
?Write@ProvDebugLog@@QAAXPBGZZ
?WriteA@ProvDebugLog@@QAAXPBDZZ
?WriteFileAndLine@ProvDebugLog@@QAAXPBDKPBGZZ
?WriteFileAndLine@ProvDebugLog@@QAAXPBGK0ZZ
?WriteFileAndLineA@ProvDebugLog@@QAAXPBDK0ZZ
?WriteFileAndLineW@ProvDebugLog@@QAAXPBGK0ZZ
?WriteW@ProvDebugLog@@QAAXPBGZZ
?s_ProvDebugLog@ProvDebugLog@@2PAV1@A
?s_ReferenceCount@ProvDebugLog@@2JA
?s_aLogs@ProvDebugLog@@2PAV1@A
