LIBRARY cmutil.dll

EXPORTS
??0CIniA@@QAE@PAUHINSTANCE__@@PBD111@Z
??0CIniW@@QAE@PAUHINSTANCE__@@PBG111@Z
??0CRandom@@QAE@I@Z
??0CRandom@@QAE@XZ
??0CmLogFile@@QAE@XZ
??1CIniA@@QAE@XZ
??1CIniW@@QAE@XZ
??1CmLogFile@@QAE@XZ
??4CIniA@@QAEAAV0@ABV0@@Z
??4CIniW@@QAEAAV0@ABV0@@Z
??4CRandom@@QAEAAV0@$$QAV0@@Z
??4CRandom@@QAEAAV0@ABV0@@Z
??4CmLogFile@@QAEAAV0@ABV0@@Z
??_FCIniA@@QAEXXZ
??_FCIniW@@QAEXXZ
?Banner@CmLogFile@@QAEXXZ
?CIniA_DeleteEntryFromReg@CIniA@@IBEHPAUHKEY__@@PBD1@Z
?CIniA_GetEntryFromReg@CIniA@@IBEPAEPAUHKEY__@@PBD1KK@Z
?CIniA_WriteEntryToReg@CIniA@@IBEHPAUHKEY__@@PBD1PBEKK@Z
?CIniW_DeleteEntryFromReg@CIniW@@IBEHPAUHKEY__@@PBG1@Z
?CIniW_GetEntryFromReg@CIniW@@IBEPAEPAUHKEY__@@PBG1KK@Z
?CIniW_WriteEntryToReg@CIniW@@IBEHPAUHKEY__@@PBG1PBEKK@Z
?CIni_SetFile@CIniA@@KGXPAPADPBD@Z
?CIni_SetFile@CIniW@@KGXPAPAGPBG@Z
?Clear@CIniA@@QAEXXZ
?Clear@CIniW@@QAEXXZ
?Clear@CmLogFile@@QAEXH@Z
?CloseFile@CmLogFile@@AAEJXZ
?DeInit@CmLogFile@@QAEJXZ
?FormatWrite@CmLogFile@@AAEXW4_CMLOG_ITEM@@PAG@Z
?GPPB@CIniA@@QBEHPBD0H@Z
?GPPB@CIniW@@QBEHPBG0H@Z
?GPPI@CIniA@@QBEKPBD0K@Z
?GPPI@CIniW@@QBEKPBG0K@Z
?GPPS@CIniA@@QBEPADPBD00@Z
?GPPS@CIniW@@QBEPAGPBG00@Z
?Generate@CRandom@@QAEHXZ
?GetFile@CIniA@@QBEPBDXZ
?GetFile@CIniW@@QBEPBGXZ
?GetHInst@CIniA@@QBEPAUHINSTANCE__@@XZ
?GetHInst@CIniW@@QBEPAUHINSTANCE__@@XZ
?GetLogFilePath@CmLogFile@@QAEPBGXZ
?GetPrimaryFile@CIniA@@QBEPBDXZ
?GetPrimaryFile@CIniW@@QBEPBGXZ
?GetPrimaryRegPath@CIniA@@QBEPBDXZ
?GetPrimaryRegPath@CIniW@@QBEPBGXZ
?GetRegPath@CIniA@@QBEPBDXZ
?GetRegPath@CIniW@@QBEPBGXZ
?GetSection@CIniA@@QBEPBDXZ
?GetSection@CIniW@@QBEPBGXZ
?Init@CRandom@@QAEXK@Z
?Init@CmLogFile@@QAEJPAUHINSTANCE__@@HPBD@Z
?Init@CmLogFile@@QAEJPAUHINSTANCE__@@HPBG@Z
?IsEnabled@CmLogFile@@QAEHXZ
?LoadEntry@CIniA@@IBEPADPBD@Z
?LoadEntry@CIniW@@IBEPAGPBG@Z
?LoadSection@CIniA@@QBEPADPBD@Z
?LoadSection@CIniW@@QBEPAGPBG@Z
?Log@CmLogFile@@QAAXW4_CMLOG_ITEM@@ZZ
?OpenFile@CmLogFile@@AAEJXZ
?SetEntry@CIniA@@QAEXPBD@Z
?SetEntry@CIniW@@QAEXPBG@Z
?SetEntryFromIdx@CIniA@@QAEXK@Z
?SetEntryFromIdx@CIniW@@QAEXK@Z
?SetFile@CIniA@@QAEXPBD@Z
?SetFile@CIniW@@QAEXPBG@Z
?SetHInst@CIniA@@QAEXPAUHINSTANCE__@@@Z
?SetHInst@CIniW@@QAEXPAUHINSTANCE__@@@Z
?SetICSDataPath@CIniA@@QAEXPBD@Z
?SetICSDataPath@CIniW@@QAEXPBG@Z
?SetParams@CmLogFile@@QAEJHKPBD@Z
?SetParams@CmLogFile@@QAEJHKPBG@Z
?SetPrimaryFile@CIniA@@QAEXPBD@Z
?SetPrimaryFile@CIniW@@QAEXPBG@Z
?SetPrimaryRegPath@CIniA@@QAEXPBD@Z
?SetPrimaryRegPath@CIniW@@QAEXPBG@Z
?SetReadICSData@CIniA@@QAEXH@Z
?SetReadICSData@CIniW@@QAEXH@Z
?SetRegPath@CIniA@@QAEXPBD@Z
?SetRegPath@CIniW@@QAEXPBG@Z
?SetSection@CIniA@@QAEXPBD@Z
?SetSection@CIniW@@QAEXPBG@Z
?SetWriteICSData@CIniA@@QAEXH@Z
?SetWriteICSData@CIniW@@QAEXH@Z
?Start@CmLogFile@@QAEJH@Z
?Stop@CmLogFile@@QAEJXZ
?WPPB@CIniA@@QAEXPBD0H@Z
?WPPB@CIniW@@QAEXPBG0H@Z
?WPPI@CIniA@@QAEXPBD0K@Z
?WPPI@CIniW@@QAEXPBG0K@Z
?WPPS@CIniA@@QAEXPBD00@Z
?WPPS@CIniW@@QAEXPBG00@Z
?Write@CmLogFile@@AAEJPAG@Z
?kMaxValueLength@CIniW@@2KB
CmAtolA
CmAtolW
CmBuildFullPathFromRelativeA
CmBuildFullPathFromRelativeW
CmCompareStringA
CmCompareStringW
CmConvertRelativePathW
CmConvertStrToIPv6AddrA
CmConvertStrToIPv6AddrW
CmEndOfStrW
CmFmtMsgA
CmFmtMsgW
CmFree
CmIsDigitW
CmIsIPv6AddressA
CmIsIPv6AddressW
CmIsSpaceW
CmLoadIconA
CmLoadIconW
CmLoadImageW
CmLoadSmallIconA
CmLoadSmallIconW
CmLoadStringW
CmMalloc
CmMoveMemory
CmParsePathW
CmRealloc
CmStrCatAllocA
CmStrCatAllocW
CmStrCharCountA
CmStrCharCountW
CmStrCharStuffingA
CmStrCharStuffingW
CmStrCpyAllocA
CmStrCpyAllocW
CmStrStrA
CmStrStrW
CmStrTrimW
CmStrchrA
CmStrchrW
CmStripFileNameW
CmStripPathAndExtW
CmStrrchrA
CmStrrchrW
CmStrtokA
CmStrtokW
GetOSBuildNumber
GetOSMajorVersion
GetOSMinorVersion
GetOSVersion
IsFarEastNonOSR2Win95
IsLogonAsSystem
MakeBold
ReleaseBold
SzToWz
SzToWzWithAlloc
WzToSz
WzToSzWithAlloc
