LIBRARY spwizeng.dll

EXPORTS
??0?$CSimpleArray@PAGV?$CSimpleArrayEqualHelper@PAG@ATL@@@ATL@@QAE@ABV01@@Z
??0?$CSimpleArray@PAGV?$CSimpleArrayEqualHelper@PAG@ATL@@@ATL@@QAE@XZ
??0?$CSimpleArray@PAUIResourceModuleEvent@@V?$CSimpleArrayEqualHelper@PAUIResourceModuleEvent@@@ATL@@@ATL@@QAE@ABV01@@Z
??0?$CSimpleArray@PAUIResourceModuleEvent@@V?$CSimpleArrayEqualHelper@PAUIResourceModuleEvent@@@ATL@@@ATL@@QAE@XZ
??0?$CSimpleArray@PAUKEYBOARD@@V?$CSimpleArrayEqualHelper@PAUKEYBOARD@@@ATL@@@ATL@@QAE@ABV01@@Z
??0?$CSimpleArray@PAUKEYBOARD@@V?$CSimpleArrayEqualHelper@PAUKEYBOARD@@@ATL@@@ATL@@QAE@XZ
??0?$CSimpleArray@PAULANGUAGE@@V?$CSimpleArrayEqualHelper@PAULANGUAGE@@@ATL@@@ATL@@QAE@ABV01@@Z
??0?$CSimpleArray@PAULANGUAGE@@V?$CSimpleArrayEqualHelper@PAULANGUAGE@@@ATL@@@ATL@@QAE@XZ
??0?$CSimpleArray@PAULOCALE@@V?$CSimpleArrayEqualHelper@PAULOCALE@@@ATL@@@ATL@@QAE@ABV01@@Z
??0?$CSimpleArray@PAULOCALE@@V?$CSimpleArrayEqualHelper@PAULOCALE@@@ATL@@@ATL@@QAE@XZ
??0?$CSimpleStringT@G$0A@@ATL@@QAE@ABV01@@Z
??0?$CSimpleStringT@G$0A@@ATL@@QAE@ABV?$CSimpleStringT@G$00@1@@Z
??0?$CSimpleStringT@G$0A@@ATL@@QAE@PAUIAtlStringMgr@1@@Z
??0?$CSimpleStringT@G$0A@@ATL@@QAE@PBGHPAUIAtlStringMgr@1@@Z
??0?$CSimpleStringT@G$0A@@ATL@@QAE@PBGPAUIAtlStringMgr@1@@Z
??0?$CStringT@GV?$StrTraitATL@GV?$ChTraitsCRT@G@ATL@@@ATL@@@ATL@@QAE@ABUtagVARIANT@@@Z
??0?$CStringT@GV?$StrTraitATL@GV?$ChTraitsCRT@G@ATL@@@ATL@@@ATL@@QAE@ABUtagVARIANT@@PAUIAtlStringMgr@1@@Z
??0?$CStringT@GV?$StrTraitATL@GV?$ChTraitsCRT@G@ATL@@@ATL@@@ATL@@QAE@ABV01@@Z
??0?$CStringT@GV?$StrTraitATL@GV?$ChTraitsCRT@G@ATL@@@ATL@@@ATL@@QAE@DH@Z
??0?$CStringT@GV?$StrTraitATL@GV?$ChTraitsCRT@G@ATL@@@ATL@@@ATL@@QAE@GH@Z
??0?$CStringT@GV?$StrTraitATL@GV?$ChTraitsCRT@G@ATL@@@ATL@@@ATL@@QAE@PAUIAtlStringMgr@1@@Z
??0?$CStringT@GV?$StrTraitATL@GV?$ChTraitsCRT@G@ATL@@@ATL@@@ATL@@QAE@PBD@Z
??0?$CStringT@GV?$StrTraitATL@GV?$ChTraitsCRT@G@ATL@@@ATL@@@ATL@@QAE@PBDH@Z
??0?$CStringT@GV?$StrTraitATL@GV?$ChTraitsCRT@G@ATL@@@ATL@@@ATL@@QAE@PBDHPAUIAtlStringMgr@1@@Z
??0?$CStringT@GV?$StrTraitATL@GV?$ChTraitsCRT@G@ATL@@@ATL@@@ATL@@QAE@PBDPAUIAtlStringMgr@1@@Z
??0?$CStringT@GV?$StrTraitATL@GV?$ChTraitsCRT@G@ATL@@@ATL@@@ATL@@QAE@PBE@Z
??0?$CStringT@GV?$StrTraitATL@GV?$ChTraitsCRT@G@ATL@@@ATL@@@ATL@@QAE@PBEPAUIAtlStringMgr@1@@Z
??0?$CStringT@GV?$StrTraitATL@GV?$ChTraitsCRT@G@ATL@@@ATL@@@ATL@@QAE@PBG@Z
??0?$CStringT@GV?$StrTraitATL@GV?$ChTraitsCRT@G@ATL@@@ATL@@@ATL@@QAE@PBGH@Z
??0?$CStringT@GV?$StrTraitATL@GV?$ChTraitsCRT@G@ATL@@@ATL@@@ATL@@QAE@PBGHPAUIAtlStringMgr@1@@Z
??0?$CStringT@GV?$StrTraitATL@GV?$ChTraitsCRT@G@ATL@@@ATL@@@ATL@@QAE@PBGPAUIAtlStringMgr@1@@Z
??0?$CStringT@GV?$StrTraitATL@GV?$ChTraitsCRT@G@ATL@@@ATL@@@ATL@@QAE@XZ
??0AppWindow@@QAE@ABV0@@Z
??0AppWindow@@QAE@PAVWizardUI@@I@Z
??0BranchWizStrategy@@QAE@$$QAV0@@Z
??0BranchWizStrategy@@QAE@ABV0@@Z
??0BranchWizStrategy@@QAE@PAVWizardEx@@@Z
??0CAnimation@@QAE@ABV0@@Z
??0CAnimation@@QAE@XZ
??0CAnimationControl@@QAE@ABV0@@Z
??0CAnimationControl@@QAE@XZ
??0CAttachDataDlg@@QAE@ABV0@@Z
??0CAttachDataDlg@@QAE@PAUHINSTANCE__@@0@Z
??0CCritSec@@QAE@ABV0@@Z
??0CCritSec@@QAE@XZ
??0CCtlText@@QAE@ABV0@@Z
??0CCtlText@@QAE@XZ
??0CCursor@@AAE@XZ
??0CCursor@@QAE@ABV0@@Z
??0CCustomButtonEx@@AAE@XZ
??0CCustomButtonEx@@QAE@ABV0@@Z
??0CCustomGraphicEx@@QAE@ABV0@@Z
??0CCustomGraphicEx@@QAE@XZ
??0CDIB@@QAE@XZ
??0CDrawBackground@@QAE@ABV0@@Z
??0CDrawBackground@@QAE@XZ
??0CDrawItem@@QAE@ABV0@@Z
??0CDrawItem@@QAE@XZ
??0CDrawItemComposite@@QAE@ABV0@@Z
??0CDrawItemComposite@@QAE@XZ
??0CGenericNavWindow@@QAE@ABV0@@Z
??0CGenericNavWindow@@QAE@PAVAppWindow@@@Z
??0CHighContrast@@AAE@XZ
??0CHighContrast@@QAE@ABV0@@Z
??0CResourceModule@@QAE@ABV0@@Z
??0CResourceModule@@QAE@PAUHINSTANCE__@@@Z
??0CResourceModule@@QAE@PAUHINSTANCE__@@PBG@Z
??0CResourceModule@@QAE@PBG@Z
??0CRichEditControl@@QAE@XZ
??0CScreenDIB@@QAE@$$QAV0@@Z
??0CScreenDIB@@QAE@ABV0@@Z
??0CScreenDIB@@QAE@XZ
??0CScreenText@@QAE@ABV0@@Z
??0CScreenText@@QAE@XZ
??0CWndObj@@QAE@ABV0@@Z
??0CWndObj@@QAE@XZ
??0ChoiceWizStrategy@@QAE@$$QAV0@@Z
??0ChoiceWizStrategy@@QAE@ABV0@@Z
??0ChoiceWizStrategy@@QAE@PAVWizardEx@@@Z
??0ICreateNavbarWnd@@QAE@ABV0@@Z
??0ICreateNavbarWnd@@QAE@XZ
??0ICreateProgressWnd@@QAE@ABV0@@Z
??0ICreateProgressWnd@@QAE@XZ
??0IResourceModuleEvent@@QAE@$$QAU0@@Z
??0IResourceModuleEvent@@QAE@ABU0@@Z
??0IResourceModuleEvent@@QAE@XZ
??0LanguageNeutralSelectionDialogBase@@QAE@ABV0@@Z
??0LanguageNeutralSelectionDialogBase@@QAE@XZ
??0LanguageSelectionDialogBase@@QAE@ABV0@@Z
??0LanguageSelectionDialogBase@@QAE@XZ
??0MyString@@QAE@XZ
??0NavWindow@@QAE@ABV0@@Z
??0NavWindow@@QAE@PAVAppWindow@@@Z
??0NavigationStack@@QAE@ABV0@@Z
??0NavigationStack@@QAE@XZ
??0Navigator@@AAE@XZ
??0Navigator@@QAE@ABV0@@Z
??0PIDStringView@@QAE@ABV0@@Z
??0PIDStringView@@QAE@XZ
??0PageContainer@@QAE@ABV0@@Z
??0PageContainer@@QAE@XZ
??0ProtoPageDimensions@@QAE@USimpleRect@@USimpleSize@@HH11MM@Z
??0ProtoPageDimensions@@QAE@XZ
??0ProtoPageList@@QAE@ABV0@@Z
??0ProtoPageList@@QAE@PAVWizardDesciption@@KKKHPAVICreateProgressWnd@@HPAUtagSIZE@@PAVICreateNavbarWnd@@UProtoPageDimensions@@KKH@Z
??0ProtoPageList@@QAE@XZ
??0ScrWindow@@QAE@ABV0@@Z
??0ScrWindow@@QAE@PAVWizardUI@@I@Z
??0SimpleDialogBase@@QAE@$$QAV0@@Z
??0SimpleDialogBase@@QAE@ABV0@@Z
??0SimpleDialogBase@@QAE@XZ
??0SimpleRect@@QAE@HHHH@Z
??0SimpleRect@@QAE@XZ
??0SimpleSize@@QAE@HH@Z
??0SimpleSize@@QAE@XZ
??0SimpleWizStrategy@@QAE@$$QAV0@@Z
??0SimpleWizStrategy@@QAE@ABV0@@Z
??0SimpleWizStrategy@@QAE@PAVWizardEx@@@Z
??0SummaryWizStrategy@@QAE@$$QAV0@@Z
??0SummaryWizStrategy@@QAE@ABV0@@Z
??0SummaryWizStrategy@@QAE@PAVWizardEx@@@Z
??0VariationWizStrategy@@QAE@$$QAV0@@Z
??0VariationWizStrategy@@QAE@ABV0@@Z
??0VariationWizStrategy@@QAE@PAVWizardEx@@ABV?$CSimpleMap@HHV?$CSimpleMapEqualHelper@HH@ATL@@@ATL@@H@Z
??0Win32Navigator@@AAE@XZ
??0Win32Navigator@@QAE@ABV0@@Z
??0Wiz_Node@@QAE@ABV0@@Z
??0Wiz_Node@@QAE@I@Z
??0WizardBranch@@QAE@$$QAV0@@Z
??0WizardBranch@@QAE@ABV0@@Z
??0WizardBranch@@QAE@IPAPAVWiz_Node@@@Z
??0WizardCollection@@QAE@$$QAV0@@Z
??0WizardCollection@@QAE@ABV0@@Z
??0WizardCollection@@QAE@IIPAPAVWiz_Node@@@Z
??0WizardDesciption@@QAE@$$QAV0@@Z
??0WizardDesciption@@QAE@ABV0@@Z
??0WizardDesciption@@QAE@IPAPAVWiz_Node@@@Z
??0WizardDialogPost@@QAE@$$QAV0@@Z
??0WizardDialogPost@@QAE@ABV0@@Z
??0WizardDialogPost@@QAE@XZ
??0WizardDialogPre@@QAE@$$QAV0@@Z
??0WizardDialogPre@@QAE@ABV0@@Z
??0WizardDialogPre@@QAE@XZ
??0WizardEx@@QAE@ABV0@@Z
??0WizardEx@@QAE@XZ
??0WizardHandler@@QAE@$$QAV0@@Z
??0WizardHandler@@QAE@ABV0@@Z
??0WizardHandler@@QAE@XZ
??0WizardNode@@QAE@ABV0@@Z
??0WizardNode@@QAE@IIPAVWizardEx@@PAVWizardUI@@@Z
??0WizardNode@@QAE@XZ
??0WizardPage@@QAE@ABV0@@Z
??0WizardPage@@QAE@IIPAVWizardEx@@PAVWizardUI@@@Z
??0WizardRoot@@QAE@ABV0@@Z
??0WizardRoot@@QAE@XZ
??0WizardStrategy@@QAE@ABV0@@Z
??0WizardStrategy@@QAE@PAVWizardEx@@@Z
??0WizardSummary@@QAE@$$QAV0@@Z
??0WizardSummary@@QAE@ABV0@@Z
??0WizardSummary@@QAE@IPAPAVWiz_Node@@@Z
??0WizardUI@@QAE@XZ
??0WizardVariation@@QAE@ABV0@@Z
??0WizardVariation@@QAE@IPAPAVWiz_Node@@ABV?$CSimpleMap@HHV?$CSimpleMapEqualHelper@HH@ATL@@@ATL@@PBG@Z
??0Wizard_PageDesciption@@QAE@ABV0@@Z
??0Wizard_PageDesciption@@QAE@KPBG0KP6GPAVWizardRoot@@PAVWizardPage@@@ZK@Z
??1?$CSimpleArray@PAGV?$CSimpleArrayEqualHelper@PAG@ATL@@@ATL@@QAE@XZ
??1?$CSimpleArray@PAUIResourceModuleEvent@@V?$CSimpleArrayEqualHelper@PAUIResourceModuleEvent@@@ATL@@@ATL@@QAE@XZ
??1?$CSimpleArray@PAUKEYBOARD@@V?$CSimpleArrayEqualHelper@PAUKEYBOARD@@@ATL@@@ATL@@QAE@XZ
??1?$CSimpleArray@PAULANGUAGE@@V?$CSimpleArrayEqualHelper@PAULANGUAGE@@@ATL@@@ATL@@QAE@XZ
??1?$CSimpleArray@PAULOCALE@@V?$CSimpleArrayEqualHelper@PAULOCALE@@@ATL@@@ATL@@QAE@XZ
??1?$CSimpleStringT@G$0A@@ATL@@QAE@XZ
??1?$CStringT@GV?$StrTraitATL@GV?$ChTraitsCRT@G@ATL@@@ATL@@@ATL@@QAE@XZ
??1AppWindow@@UAE@XZ
??1BranchWizStrategy@@UAE@XZ
??1CAnimation@@UAE@XZ
??1CAnimationControl@@UAE@XZ
??1CAttachDataDlg@@QAE@XZ
??1CCritSec@@UAE@XZ
??1CCtlText@@UAE@XZ
??1CCursor@@EAE@XZ
??1CCustomButtonEx@@EAE@XZ
??1CCustomGraphicEx@@UAE@XZ
??1CDIB@@QAE@XZ
??1CDrawBackground@@UAE@XZ
??1CDrawItem@@UAE@XZ
??1CDrawItemComposite@@UAE@XZ
??1CGenericNavWindow@@UAE@XZ
??1CHighContrast@@EAE@XZ
??1CResourceModule@@QAE@XZ
??1CScreenDIB@@UAE@XZ
??1CScreenText@@UAE@XZ
??1CWndObj@@UAE@XZ
??1ChoiceWizStrategy@@UAE@XZ
??1ICreateNavbarWnd@@UAE@XZ
??1ICreateProgressWnd@@UAE@XZ
??1LanguageNeutralSelectionDialogBase@@QAE@XZ
??1LanguageSelectionDialogBase@@QAE@XZ
??1NavWindow@@UAE@XZ
??1NavigationStack@@UAE@XZ
??1Navigator@@EAE@XZ
??1PIDStringView@@UAE@XZ
??1PageContainer@@UAE@XZ
??1ScrWindow@@UAE@XZ
??1SimpleWizStrategy@@UAE@XZ
??1SummaryWizStrategy@@UAE@XZ
??1VariationWizStrategy@@UAE@XZ
??1Win32Navigator@@EAE@XZ
??1Wiz_Node@@UAE@XZ
??1WizardBranch@@UAE@XZ
??1WizardCollection@@UAE@XZ
??1WizardDesciption@@UAE@XZ
??1WizardEx@@UAE@XZ
??1WizardNode@@UAE@XZ
??1WizardPage@@UAE@XZ
??1WizardRoot@@UAE@XZ
??1WizardStrategy@@UAE@XZ
??1WizardSummary@@UAE@XZ
??1WizardUI@@QAE@XZ
??1WizardVariation@@UAE@XZ
??1Wizard_PageDesciption@@UAE@XZ
??4?$CSimpleArray@PAGV?$CSimpleArrayEqualHelper@PAG@ATL@@@ATL@@QAEAAV01@ABV01@@Z
??4?$CSimpleArray@PAUIResourceModuleEvent@@V?$CSimpleArrayEqualHelper@PAUIResourceModuleEvent@@@ATL@@@ATL@@QAEAAV01@ABV01@@Z
??4?$CSimpleArray@PAUKEYBOARD@@V?$CSimpleArrayEqualHelper@PAUKEYBOARD@@@ATL@@@ATL@@QAEAAV01@ABV01@@Z
??4?$CSimpleArray@PAULANGUAGE@@V?$CSimpleArrayEqualHelper@PAULANGUAGE@@@ATL@@@ATL@@QAEAAV01@ABV01@@Z
??4?$CSimpleArray@PAULOCALE@@V?$CSimpleArrayEqualHelper@PAULOCALE@@@ATL@@@ATL@@QAEAAV01@ABV01@@Z
??4?$CSimpleStringT@G$0A@@ATL@@QAEAAV01@ABV01@@Z
??4?$CSimpleStringT@G$0A@@ATL@@QAEAAV01@ABV?$CSimpleStringT@G$00@1@@Z
??4?$CSimpleStringT@G$0A@@ATL@@QAEAAV01@PBG@Z
??4?$CStringT@GV?$StrTraitATL@GV?$ChTraitsCRT@G@ATL@@@ATL@@@ATL@@QAEAAV01@ABUtagVARIANT@@@Z
??4?$CStringT@GV?$StrTraitATL@GV?$ChTraitsCRT@G@ATL@@@ATL@@@ATL@@QAEAAV01@ABV01@@Z
??4?$CStringT@GV?$StrTraitATL@GV?$ChTraitsCRT@G@ATL@@@ATL@@@ATL@@QAEAAV01@D@Z
??4?$CStringT@GV?$StrTraitATL@GV?$ChTraitsCRT@G@ATL@@@ATL@@@ATL@@QAEAAV01@G@Z
??4?$CStringT@GV?$StrTraitATL@GV?$ChTraitsCRT@G@ATL@@@ATL@@@ATL@@QAEAAV01@PBD@Z
??4?$CStringT@GV?$StrTraitATL@GV?$ChTraitsCRT@G@ATL@@@ATL@@@ATL@@QAEAAV01@PBE@Z
??4?$CStringT@GV?$StrTraitATL@GV?$ChTraitsCRT@G@ATL@@@ATL@@@ATL@@QAEAAV01@PBG@Z
??4AppWindow@@QAEAAV0@ABV0@@Z
??4BranchWizStrategy@@QAEAAV0@$$QAV0@@Z
??4BranchWizStrategy@@QAEAAV0@ABV0@@Z
??4CAnimation@@QAEAAV0@ABV0@@Z
??4CAnimationControl@@QAEAAV0@ABV0@@Z
??4CAttachDataDlg@@QAEAAV0@ABV0@@Z
??4CCritSec@@QAEAAV0@ABV0@@Z
??4CCtlText@@QAEAAV0@ABV0@@Z
??4CCursor@@QAEAAV0@ABV0@@Z
??4CCustomButtonEx@@QAEAAV0@ABV0@@Z
??4CCustomGraphicEx@@QAEAAV0@ABV0@@Z
??4CDIB@@QAEAAV0@ABV0@@Z
??4CDrawBackground@@QAEAAV0@ABV0@@Z
??4CDrawItem@@QAEAAV0@ABV0@@Z
??4CDrawItemComposite@@QAEAAV0@ABV0@@Z
??4CGenericNavWindow@@QAEAAV0@ABV0@@Z
??4CHighContrast@@QAEAAV0@ABV0@@Z
??4CResourceModule@@QAEAAV0@ABV0@@Z
??4CResourceModuleFactory@@QAEAAV0@$$QAV0@@Z
??4CResourceModuleFactory@@QAEAAV0@ABV0@@Z
??4CRichEditControl@@QAEAAV0@$$QAV0@@Z
??4CRichEditControl@@QAEAAV0@ABV0@@Z
??4CScreenDIB@@QAEAAV0@$$QAV0@@Z
??4CScreenDIB@@QAEAAV0@ABV0@@Z
??4CScreenText@@QAEAAV0@ABV0@@Z
??4CWndObj@@QAEAAV0@ABV0@@Z
??4ChoiceWizStrategy@@QAEAAV0@$$QAV0@@Z
??4ChoiceWizStrategy@@QAEAAV0@ABV0@@Z
??4ICreateNavbarWnd@@QAEAAV0@ABV0@@Z
??4ICreateProgressWnd@@QAEAAV0@ABV0@@Z
??4IResourceModuleEvent@@QAEAAU0@$$QAU0@@Z
??4IResourceModuleEvent@@QAEAAU0@ABU0@@Z
??4LanguageNeutralSelectionDialogBase@@QAEAAV0@ABV0@@Z
??4LanguageSelectionDialogBase@@QAEAAV0@ABV0@@Z
??4MyString@@QAEAAV0@$$QAV0@@Z
??4MyString@@QAEAAV0@ABV0@@Z
??4NavWindow@@QAEAAV0@ABV0@@Z
??4NavigationStack@@QAEAAV0@ABV0@@Z
??4Navigator@@QAEAAV0@ABV0@@Z
??4PIDStringView@@QAEAAV0@ABV0@@Z
??4PageContainer@@QAEAAV0@ABV0@@Z
??4PageDef@@QAEAAU0@$$QAU0@@Z
??4PageDef@@QAEAAU0@ABU0@@Z
??4ProgressCreateStruct@@QAEAAU0@$$QAU0@@Z
??4ProgressCreateStruct@@QAEAAU0@ABU0@@Z
??4ProtoPageDimensions@@QAEAAU0@$$QAU0@@Z
??4ProtoPageDimensions@@QAEAAU0@ABU0@@Z
??4ProtoPageList@@QAEAAV0@ABV0@@Z
??4ScrWindow@@QAEAAV0@ABV0@@Z
??4SimpleDialogBase@@QAEAAV0@$$QAV0@@Z
??4SimpleDialogBase@@QAEAAV0@ABV0@@Z
??4SimpleRect@@QAEAAU0@$$QAU0@@Z
??4SimpleRect@@QAEAAU0@ABU0@@Z
??4SimpleSize@@QAEAAU0@$$QAU0@@Z
??4SimpleSize@@QAEAAU0@ABU0@@Z
??4SimpleWizStrategy@@QAEAAV0@$$QAV0@@Z
??4SimpleWizStrategy@@QAEAAV0@ABV0@@Z
??4SummaryWizStrategy@@QAEAAV0@$$QAV0@@Z
??4SummaryWizStrategy@@QAEAAV0@ABV0@@Z
??4Win32Navigator@@QAEAAV0@ABV0@@Z
??4Wiz_Node@@QAEAAV0@ABV0@@Z
??4WizardBranch@@QAEAAV0@$$QAV0@@Z
??4WizardBranch@@QAEAAV0@ABV0@@Z
??4WizardCollection@@QAEAAV0@$$QAV0@@Z
??4WizardCollection@@QAEAAV0@ABV0@@Z
??4WizardDesciption@@QAEAAV0@$$QAV0@@Z
??4WizardDesciption@@QAEAAV0@ABV0@@Z
??4WizardDialogPost@@QAEAAV0@$$QAV0@@Z
??4WizardDialogPost@@QAEAAV0@ABV0@@Z
??4WizardDialogPre@@QAEAAV0@$$QAV0@@Z
??4WizardDialogPre@@QAEAAV0@ABV0@@Z
??4WizardEx@@QAEAAV0@ABV0@@Z
??4WizardHandler@@QAEAAV0@$$QAV0@@Z
??4WizardHandler@@QAEAAV0@ABV0@@Z
??4WizardNode@@QAEAAV0@ABV0@@Z
??4WizardPage@@QAEAAV0@ABV0@@Z
??4WizardRoot@@QAEAAV0@ABV0@@Z
??4WizardStrategy@@QAEAAV0@ABV0@@Z
??4WizardSummary@@QAEAAV0@$$QAV0@@Z
??4WizardSummary@@QAEAAV0@ABV0@@Z
??4WizardUI@@QAEAAV0@ABV0@@Z
??4Wizard_PageDesciption@@QAEAAV0@ABV0@@Z
??A?$CSimpleArray@PAGV?$CSimpleArrayEqualHelper@PAG@ATL@@@ATL@@QAEAAPAGH@Z
??A?$CSimpleArray@PAGV?$CSimpleArrayEqualHelper@PAG@ATL@@@ATL@@QBEABQAGH@Z
??A?$CSimpleArray@PAUIResourceModuleEvent@@V?$CSimpleArrayEqualHelper@PAUIResourceModuleEvent@@@ATL@@@ATL@@QAEAAPAUIResourceModuleEvent@@H@Z
??A?$CSimpleArray@PAUIResourceModuleEvent@@V?$CSimpleArrayEqualHelper@PAUIResourceModuleEvent@@@ATL@@@ATL@@QBEABQAUIResourceModuleEvent@@H@Z
??A?$CSimpleArray@PAUKEYBOARD@@V?$CSimpleArrayEqualHelper@PAUKEYBOARD@@@ATL@@@ATL@@QAEAAPAUKEYBOARD@@H@Z
??A?$CSimpleArray@PAUKEYBOARD@@V?$CSimpleArrayEqualHelper@PAUKEYBOARD@@@ATL@@@ATL@@QBEABQAUKEYBOARD@@H@Z
??A?$CSimpleArray@PAULANGUAGE@@V?$CSimpleArrayEqualHelper@PAULANGUAGE@@@ATL@@@ATL@@QAEAAPAULANGUAGE@@H@Z
??A?$CSimpleArray@PAULANGUAGE@@V?$CSimpleArrayEqualHelper@PAULANGUAGE@@@ATL@@@ATL@@QBEABQAULANGUAGE@@H@Z
??A?$CSimpleArray@PAULOCALE@@V?$CSimpleArrayEqualHelper@PAULOCALE@@@ATL@@@ATL@@QAEAAPAULOCALE@@H@Z
??A?$CSimpleArray@PAULOCALE@@V?$CSimpleArrayEqualHelper@PAULOCALE@@@ATL@@@ATL@@QBEABQAULOCALE@@H@Z
??A?$CSimpleStringT@G$0A@@ATL@@QBEGH@Z
??B?$CSimpleStringT@G$0A@@ATL@@QAEAAV?$CSimpleStringT@G$00@1@XZ
??B?$CSimpleStringT@G$0A@@ATL@@QBEPBGXZ
??B?$CStringT@GV?$StrTraitATL@GV?$ChTraitsCRT@G@ATL@@@ATL@@@ATL@@QAEAAV?$CSimpleStringT@G$00@1@XZ
??Y?$CSimpleStringT@G$0A@@ATL@@QAEAAV01@ABV01@@Z
??Y?$CSimpleStringT@G$0A@@ATL@@QAEAAV01@D@Z
??Y?$CSimpleStringT@G$0A@@ATL@@QAEAAV01@E@Z
??Y?$CSimpleStringT@G$0A@@ATL@@QAEAAV01@G@Z
??Y?$CSimpleStringT@G$0A@@ATL@@QAEAAV01@PBG@Z
??Y?$CStringT@GV?$StrTraitATL@GV?$ChTraitsCRT@G@ATL@@@ATL@@@ATL@@QAEAAV01@ABUtagVARIANT@@@Z
??Y?$CStringT@GV?$StrTraitATL@GV?$ChTraitsCRT@G@ATL@@@ATL@@@ATL@@QAEAAV01@ABV?$CSimpleStringT@G$0A@@1@@Z
??Y?$CStringT@GV?$StrTraitATL@GV?$ChTraitsCRT@G@ATL@@@ATL@@@ATL@@QAEAAV01@D@Z
??Y?$CStringT@GV?$StrTraitATL@GV?$ChTraitsCRT@G@ATL@@@ATL@@@ATL@@QAEAAV01@E@Z
??Y?$CStringT@GV?$StrTraitATL@GV?$ChTraitsCRT@G@ATL@@@ATL@@@ATL@@QAEAAV01@G@Z
??Y?$CStringT@GV?$StrTraitATL@GV?$ChTraitsCRT@G@ATL@@@ATL@@@ATL@@QAEAAV01@PBD@Z
??Y?$CStringT@GV?$StrTraitATL@GV?$ChTraitsCRT@G@ATL@@@ATL@@@ATL@@QAEAAV01@PBG@Z
??_7AppWindow@@6BIWndObj@@@
??_7AppWindow@@6BIWndProp@@@
??_7BranchWizStrategy@@6B@
??_7CAnimation@@6B@
??_7CAnimationControl@@6B@
??_7CAttachDataDlg@@6B@
??_7CCritSec@@6B@
??_7CCtlText@@6B@
??_7CCursor@@6B@
??_7CCustomButtonEx@@6B@
??_7CCustomGraphicEx@@6B@
??_7CDrawBackground@@6B@
??_7CDrawItem@@6B@
??_7CDrawItemComposite@@6B@
??_7CGenericNavWindow@@6B@
??_7CHighContrast@@6B@
??_7CScreenDIB@@6B@
??_7CScreenText@@6B@
??_7CWndObj@@6BIWndObj@@@
??_7CWndObj@@6BIWndProp@@@
??_7ChoiceWizStrategy@@6B@
??_7ICreateNavbarWnd@@6B@
??_7ICreateProgressWnd@@6B@
??_7IResourceModuleEvent@@6B@
??_7LanguageNeutralSelectionDialogBase@@6B@
??_7LanguageSelectionDialogBase@@6B@
??_7NavWindow@@6B@
??_7NavigationStack@@6B@
??_7Navigator@@6B@
??_7PIDStringView@@6B@
??_7PageContainer@@6B@
??_7ScrWindow@@6BIWndObj@@@
??_7ScrWindow@@6BIWndProp@@@
??_7SimpleDialogBase@@6B@
??_7SimpleWizStrategy@@6B@
??_7SummaryWizStrategy@@6B@
??_7VariationWizStrategy@@6B@
??_7Win32Navigator@@6B@
??_7Wiz_Node@@6B@
??_7WizardBranch@@6B@
??_7WizardCollection@@6B@
??_7WizardDesciption@@6B@
??_7WizardDialogPost@@6B@
??_7WizardDialogPre@@6B@
??_7WizardEx@@6BINavigationNode@@@
??_7WizardEx@@6BWizardNode@@@
??_7WizardHandler@@6B@
??_7WizardNode@@6B@
??_7WizardPage@@6B@
??_7WizardRoot@@6B@
??_7WizardStrategy@@6B@
??_7WizardSummary@@6B@
??_7WizardVariation@@6B@
??_7Wizard_PageDesciption@@6B@
?Add@?$CSimpleArray@PAGV?$CSimpleArrayEqualHelper@PAG@ATL@@@ATL@@QAEHABQAG@Z
?Add@?$CSimpleArray@PAUIResourceModuleEvent@@V?$CSimpleArrayEqualHelper@PAUIResourceModuleEvent@@@ATL@@@ATL@@QAEHABQAUIResourceModuleEvent@@@Z
?Add@?$CSimpleArray@PAUKEYBOARD@@V?$CSimpleArrayEqualHelper@PAUKEYBOARD@@@ATL@@@ATL@@QAEHABQAUKEYBOARD@@@Z
?Add@?$CSimpleArray@PAULANGUAGE@@V?$CSimpleArrayEqualHelper@PAULANGUAGE@@@ATL@@@ATL@@QAEHABQAULANGUAGE@@@Z
?Add@?$CSimpleArray@PAULOCALE@@V?$CSimpleArrayEqualHelper@PAULOCALE@@@ATL@@@ATL@@QAEHABQAULOCALE@@@Z
?AddItem@CDrawItemComposite@@QAEXPAVCDrawItem@@@Z
?AddPage@PageContainer@@QAGXPAVWizardPage@@@Z
?AddPage@WizardUI@@QAEHPAVWizardPage@@@Z
?AddRef@CWndObj@@UAGKXZ
?AllocSysString@?$CStringT@GV?$StrTraitATL@GV?$ChTraitsCRT@G@ATL@@@ATL@@@ATL@@QBEPAGXZ
?Append@?$CSimpleStringT@G$0A@@ATL@@QAEXABV12@@Z
?Append@?$CSimpleStringT@G$0A@@ATL@@QAEXPBG@Z
?Append@?$CSimpleStringT@G$0A@@ATL@@QAEXPBGH@Z
?AppendChar@?$CSimpleStringT@G$0A@@ATL@@QAEXG@Z
?AppendFormat@?$CStringT@GV?$StrTraitATL@GV?$ChTraitsCRT@G@ATL@@@ATL@@@ATL@@QAAXIZZ
?AppendFormat@?$CStringT@GV?$StrTraitATL@GV?$ChTraitsCRT@G@ATL@@@ATL@@@ATL@@QAAXPBGZZ
?AppendFormatV@?$CStringT@GV?$StrTraitATL@GV?$ChTraitsCRT@G@ATL@@@ATL@@@ATL@@QAEXPBGPAD@Z
?Attach@?$CSimpleStringT@G$0A@@ATL@@AAEXPAUCStringData@2@@Z
?Back@Navigator@@UAGPAVWizardPage@@PAVWizardNode@@@Z
?Back@WizardEx@@UAGPAVWizardPage@@PAVWizardNode@@@Z
?BlendNormal32@CDIB@@CGXPAV1@0@Z
?ButtonContinue@WizardHandler@@QAEPAVCCustomButtonEx@@XZ
?ButtonContinue@WizardRoot@@QAEAAPAVCCustomButtonEx@@XZ
?ButtonFinish@WizardHandler@@QAEPAVCCustomButtonEx@@XZ
?ButtonFinish@WizardRoot@@QAEAAPAVCCustomButtonEx@@XZ
?CStringExpandEnvironmentStrings@@YG?AV?$CStringT@GV?$StrTraitATL@GV?$ChTraitsCRT@G@ATL@@@ATL@@@ATL@@V12@@Z
?CStringGetModuleFileName@@YG?AV?$CStringT@GV?$StrTraitATL@GV?$ChTraitsCRT@G@ATL@@@ATL@@@ATL@@PAUHINSTANCE__@@@Z
?CStringGetPrivateProfileString@@YG?AV?$CStringT@GV?$StrTraitATL@GV?$ChTraitsCRT@G@ATL@@@ATL@@@ATL@@PBG000@Z
?CStringGetWindowText@@YG?AV?$CStringT@GV?$StrTraitATL@GV?$ChTraitsCRT@G@ATL@@@ATL@@@ATL@@PAUHWND__@@@Z
?CStringGetWindowsDirectory@@YG?AV?$CStringT@GV?$StrTraitATL@GV?$ChTraitsCRT@G@ATL@@@ATL@@@ATL@@XZ
?CalcAppSize@WizardUI@@AAEXXZ
?CanPageBeActivated@LanguageNeutralSelectionDialogBase@@UAEHW4Direction@@PAH@Z
?CanPageBeActivated@LanguageSelectionDialogBase@@UAEHW4Direction@@PAH@Z
?CanPageBeActivated@WizardHandler@@EAEHW4Direction@@PAH@Z
?CanPageBeActivated@WizardRoot@@UAEHW4Direction@@PAH@Z
?CanPageBeActivatedWrapper@WizardHandler@@QAEHW4Direction@@PAH@Z
?Cancel@Navigator@@UAGPAVWizardPage@@XZ
?CenterApp@WizardUI@@AAEXPAUHWND__@@UtagRECT@@@Z
?ChangeUiLanguage@CResourceModule@@SGHPBG@Z
?CharToOemA@?$CStringT@GV?$StrTraitATL@GV?$ChTraitsCRT@G@ATL@@@ATL@@@ATL@@QAEXXZ
?CheckImplicitLoad@?$CStringT@GV?$StrTraitATL@GV?$ChTraitsCRT@G@ATL@@@ATL@@@ATL@@AAE_NPBX@Z
?ClearCursorWait@CCursor@@QAEXXZ
?ClearString@MyString@@QAEXXZ
?ClearString@PIDStringView@@QAEXXZ
?CloneData@?$CSimpleStringT@G$0A@@ATL@@CAPAUCStringData@2@PAU32@@Z
?Collate@?$CStringT@GV?$StrTraitATL@GV?$ChTraitsCRT@G@ATL@@@ATL@@@ATL@@QBEHPBG@Z
?CollateNoCase@?$CStringT@GV?$StrTraitATL@GV?$ChTraitsCRT@G@ATL@@@ATL@@@ATL@@QBEHPBG@Z
?CommandHandled@WizardRoot@@QAEAAHXZ
?Compare@?$CStringT@GV?$StrTraitATL@GV?$ChTraitsCRT@G@ATL@@@ATL@@@ATL@@QBEHPBG@Z
?CompareNoCase@?$CStringT@GV?$StrTraitATL@GV?$ChTraitsCRT@G@ATL@@@ATL@@@ATL@@QBEHPBG@Z
?ComposeOffscreen@CDrawItem@@UAEXPAUHWND__@@@Z
?ComposeOffscreen@CDrawItemComposite@@UAEXPAUHWND__@@@Z
?ComposeOffscreen@CScreenText@@UAEXPAUHWND__@@@Z
?Concatenate@?$CSimpleStringT@G$0A@@ATL@@KAXAAV12@PBGH1H@Z
?Construct@?$CStringT@GV?$StrTraitATL@GV?$ChTraitsCRT@G@ATL@@@ATL@@@ATL@@SAXPAV12@@Z
?ConvertColorKeyToAlpha@CDIB@@QAEXXZ
?CopyChars@?$CSimpleStringT@G$0A@@ATL@@SAXPAGIPBGH@Z
?CopyChars@?$CSimpleStringT@G$0A@@ATL@@SAXPAGPBGH@Z
?CopyCharsOverlapped@?$CSimpleStringT@G$0A@@ATL@@SAXPAGIPBGH@Z
?CopyCharsOverlapped@?$CSimpleStringT@G$0A@@ATL@@SAXPAGPBGH@Z
?Create@CCustomButtonEx@@SGPAV1@PAUHINSTANCE__@@0PAUHWND__@@@Z
?Create@CCustomButtonEx@@SGPAV1@PAUHINSTANCE__@@0PAUHWND__@@I@Z
?Create@CCustomButtonEx@@SGPAV1@PAUHINSTANCE__@@0PAUHWND__@@IPAUHDC__@@1@Z
?Create@CCustomButtonEx@@SGPAV1@PAUHINSTANCE__@@0PAUHWND__@@PAUHDC__@@1@Z
?CreateAppWindow@WizardUI@@AAEXXZ
?CreateEx@CCustomButtonEx@@SGPAV1@PAUHINSTANCE__@@0PAUHWND__@@IQAU_Button_Data@@PAUHDC__@@1@Z
?CreateEx@CCustomButtonEx@@SGPAV1@PAUHINSTANCE__@@0PAUHWND__@@QAU_Button_Data@@PAUHDC__@@1@Z
?CreateFromHwnd@CDIB@@QAEHPAUHWND__@@@Z
?CreateIndirect@CCustomButtonEx@@SGPAV1@PAUHINSTANCE__@@0PAUHWND__@@IQAU_Button_Data@@@Z
?CreateIndirect@CCustomButtonEx@@SGPAV1@PAUHINSTANCE__@@0PAUHWND__@@QAU_Button_Data@@@Z
?CreateNavWindow@WizardUI@@AAEHXZ
?CreateNode@WizardBranch@@UAEPAVWizardNode@@IPAVWizardEx@@PAVWizardUI@@@Z
?CreateNode@WizardDesciption@@UAEPAVWizardNode@@IPAVWizardEx@@PAVWizardUI@@@Z
?CreateNode@WizardSummary@@UAEPAVWizardNode@@IPAVWizardEx@@PAVWizardUI@@@Z
?CreateNode@WizardVariation@@UAEPAVWizardNode@@IPAVWizardEx@@PAVWizardUI@@@Z
?CreateNode@Wizard_PageDesciption@@UAEPAVWizardNode@@IPAVWizardEx@@PAVWizardUI@@@Z
?CreateNodeHelper@WizardCollection@@QAEPAVWizardEx@@IPAV2@PAVWizardUI@@@Z
?CreateProgressWindow@WizardUI@@AAEHXZ
?CreatePropertySheet@WizardUI@@AAEXXZ
?CreateScrWindow@WizardUI@@AAEXXZ
?CreateWindows@WizardUI@@AAEXXZ
?Delete@?$CStringT@GV?$StrTraitATL@GV?$ChTraitsCRT@G@ATL@@@ATL@@@ATL@@QAEHHH@Z
?DeleteBackground@WizardUI@@CGXXZ
?Destroy@CCustomButtonEx@@SGXPAV1@@Z
?DestroyAllStandardButtons@WizardRoot@@QAGXXZ
?DestroyAppWindow@WizardUI@@AAEXXZ
?DestroyDialog@CAttachDataDlg@@QAEXIIJ@Z
?DestroyDialog@CGenericNavWindow@@AAEXXZ
?DestroyNavWindow@WizardUI@@AAEXXZ
?DestroyProgressWindow@WizardUI@@AAEXXZ
?DestroyPropertySheet@WizardUI@@AAEXXZ
?DestroyScrWindow@WizardUI@@AAEXXZ
?DestroyStandardButton@WizardRoot@@QAGXPAVCCustomButtonEx@@@Z
?DestroyWindows@WizardUI@@AAEXXZ
?DibHeight@CDIB@@QBEJXZ
?DibWidth@CDIB@@QBEJXZ
?DoCancel@Win32Navigator@@UAGXXZ
?DoGoToPageIndex@Win32Navigator@@UAGXH@Z
?Draw@CAnimation@@UAEHPAUHDC__@@@Z
?Draw@CDIB@@QAEHPAUHDC__@@HH@Z
?Draw@CDIB@@QAEHPAUHDC__@@HHUtagRECT@@@Z
?Draw@CDrawBackground@@UAEHPAUHDC__@@@Z
?Draw@CDrawItem@@QAEHPAUHWND__@@@Z
?Draw@CDrawItem@@QAEHXZ
?Draw@CDrawItemComposite@@UAEHPAUHDC__@@@Z
?Draw@CScreenDIB@@UAEHPAUHDC__@@@Z
?Draw@CScreenText@@UAEHPAUHDC__@@@Z
?DrawAlphaBlended@CDIB@@AAEHPAUHDC__@@HHUtagRECT@@@Z
?DrawColorKey@CDIB@@AAEHPAUHDC__@@HHUtagRECT@@@Z
?DrawCore@CDIB@@AAEHPAUHDC__@@HHUtagRECT@@H@Z
?DrawLVItem@LanguageNeutralSelectionDialogBase@@AAEJPAUtagNMLVCUSTOMDRAW@@@Z
?DrawOpaque@CDIB@@QAEHPAUHDC__@@HH@Z
?DrawOpaque@CDIB@@QAEHPAUHDC__@@HHUtagRECT@@@Z
?DumpToFile@CDIB@@QAEHPBG@Z
?EditStreamCallbackAnsi@CRichEditControl@@CGKKPAEJPAJ@Z
?EditStreamCallbackUnicode@CRichEditControl@@CGKKPAEJPAJ@Z
?Empty@?$CSimpleStringT@G$0A@@ATL@@QAEXXZ
?EnableInput@WizardUI@@QAEXH@Z
?EndUI@WizardUI@@QAEHXZ
?Enter@CCritSec@@UAEXXZ
?EnteringTrackedWnd@CCursor@@QAEHPAUHWND__@@@Z
?Find@?$CSimpleArray@PAGV?$CSimpleArrayEqualHelper@PAG@ATL@@@ATL@@QBEHABQAG@Z
?Find@?$CSimpleArray@PAUIResourceModuleEvent@@V?$CSimpleArrayEqualHelper@PAUIResourceModuleEvent@@@ATL@@@ATL@@QBEHABQAUIResourceModuleEvent@@@Z
?Find@?$CSimpleArray@PAUKEYBOARD@@V?$CSimpleArrayEqualHelper@PAUKEYBOARD@@@ATL@@@ATL@@QBEHABQAUKEYBOARD@@@Z
?Find@?$CSimpleArray@PAULANGUAGE@@V?$CSimpleArrayEqualHelper@PAULANGUAGE@@@ATL@@@ATL@@QBEHABQAULANGUAGE@@@Z
?Find@?$CSimpleArray@PAULOCALE@@V?$CSimpleArrayEqualHelper@PAULOCALE@@@ATL@@@ATL@@QBEHABQAULOCALE@@@Z
?Find@?$CStringT@GV?$StrTraitATL@GV?$ChTraitsCRT@G@ATL@@@ATL@@@ATL@@QBEHGH@Z
?Find@?$CStringT@GV?$StrTraitATL@GV?$ChTraitsCRT@G@ATL@@@ATL@@@ATL@@QBEHPBGH@Z
?FindOneOf@?$CStringT@GV?$StrTraitATL@GV?$ChTraitsCRT@G@ATL@@@ATL@@@ATL@@QBEHPBG@Z
?FirstVisit@WizardHandler@@EAEXXZ
?Fork@?$CSimpleStringT@G$0A@@ATL@@AAEXH@Z
?Format@?$CStringT@GV?$StrTraitATL@GV?$ChTraitsCRT@G@ATL@@@ATL@@@ATL@@QAAXIZZ
?Format@?$CStringT@GV?$StrTraitATL@GV?$ChTraitsCRT@G@ATL@@@ATL@@@ATL@@QAAXPBGZZ
?FormatMessageV@?$CStringT@GV?$StrTraitATL@GV?$ChTraitsCRT@G@ATL@@@ATL@@@ATL@@QAEXPBGPAPAD@Z
?FormatMessageW@?$CStringT@GV?$StrTraitATL@GV?$ChTraitsCRT@G@ATL@@@ATL@@@ATL@@QAAXIZZ
?FormatMessageW@?$CStringT@GV?$StrTraitATL@GV?$ChTraitsCRT@G@ATL@@@ATL@@@ATL@@QAAXPBGZZ
?FormatV@?$CStringT@GV?$StrTraitATL@GV?$ChTraitsCRT@G@ATL@@@ATL@@@ATL@@QAEXPBGPAD@Z
?FreeExtra@?$CSimpleStringT@G$0A@@ATL@@QAEXXZ
?FreeInstance@CCursor@@SGXXZ
?FreeInstance@CHighContrast@@SGXXZ
?FreeInstance@Navigator@@SGXXZ
?FreeInstance@Win32Navigator@@SGXXZ
?GetAllocLength@?$CSimpleStringT@G$0A@@ATL@@QBEHXZ
?GetAllowMirror@CDIB@@QAEHXZ
?GetAppBitmap@WizardUI@@SGGXZ
?GetAppDib@AppWindow@@QAGPAVCDIB@@XZ
?GetAppDimensions@WizardUI@@SGPAUProtoPageDimensions@@XZ
?GetAppHWnd@WizardUI@@QAEPAUHWND__@@XZ
?GetAppImage@AppWindow@@QAGPAUHDC__@@XZ
?GetAppRect@AppWindow@@QAGXPAUtagRECT@@@Z
?GetAppWindow@WizardUI@@QAEPAVAppWindow@@XZ
?GetAppWindowInBackgroundBitmap@ProtoPageDimensions@@QAE?AUSimpleRect@@XZ
?GetAppWindowOffset@ProtoPageDimensions@@QAE?AUSimpleSize@@XZ
?GetAppWindowSize@ProtoPageDimensions@@QAE?AUSimpleSize@@XZ
?GetAt@?$CSimpleStringT@G$0A@@ATL@@QBEGH@Z
?GetBitsPerPixel@CDIB@@QAEIXZ
?GetBkBrush@CHighContrast@@QAGPAUHBRUSH__@@PAU2@@Z
?GetBkColor@CHighContrast@@QAGKK@Z
?GetBottomMargin@ProtoPageDimensions@@QAEHXZ
?GetBuffer@?$CSimpleStringT@G$0A@@ATL@@QAEPAGH@Z
?GetBuffer@?$CSimpleStringT@G$0A@@ATL@@QAEPAGXZ
?GetBufferSetLength@?$CSimpleStringT@G$0A@@ATL@@QAEPAGH@Z
?GetButtons@WizardPage@@QAGKXZ
?GetButtons@Wizard_PageDesciption@@QAGKXZ
?GetCancelNoShow@WizardUI@@QAEHXZ
?GetCancelPage@WizardUI@@QAEPAVWizardPage@@XZ
?GetCanceled@WizardUI@@QAEHXZ
?GetContainerHwnd@PageContainer@@QAGPAUHWND__@@XZ
?GetCreateWizardDialog@Wizard_PageDesciption@@QAGQ6GPAVWizardRoot@@PAVWizardPage@@@ZXZ
?GetCurrentPage@WizardUI@@QAEPAVWizardPage@@XZ
?GetCurrentPageHwnd@PageContainer@@QAGPAUHWND__@@XZ
?GetCurrentPageIndex@PageContainer@@QAGHXZ
?GetCurrentVariation@WizardVariation@@MAEXXZ
?GetData@?$CSimpleArray@PAGV?$CSimpleArrayEqualHelper@PAG@ATL@@@ATL@@QBEPAPAGXZ
?GetData@?$CSimpleArray@PAUIResourceModuleEvent@@V?$CSimpleArrayEqualHelper@PAUIResourceModuleEvent@@@ATL@@@ATL@@QBEPAPAUIResourceModuleEvent@@XZ
?GetData@?$CSimpleArray@PAUKEYBOARD@@V?$CSimpleArrayEqualHelper@PAUKEYBOARD@@@ATL@@@ATL@@QBEPAPAUKEYBOARD@@XZ
?GetData@?$CSimpleArray@PAULANGUAGE@@V?$CSimpleArrayEqualHelper@PAULANGUAGE@@@ATL@@@ATL@@QBEPAPAULANGUAGE@@XZ
?GetData@?$CSimpleArray@PAULOCALE@@V?$CSimpleArrayEqualHelper@PAULOCALE@@@ATL@@@ATL@@QBEPAPAULOCALE@@XZ
?GetData@?$CSimpleStringT@G$0A@@ATL@@ABEPAUCStringData@2@XZ
?GetData@WizardPage@@QAGPAXXZ
?GetDialog@WizardPage@@QAGPAVWizardRoot@@XZ
?GetDib@CScreenDIB@@QAEABVCDIB@@XZ
?GetElement@NavigationStack@@QAGPAVWizardNode@@H@Z
?GetEnvironmentVariableW@?$CStringT@GV?$StrTraitATL@GV?$ChTraitsCRT@G@ATL@@@ATL@@@ATL@@QAEHPBG@Z
?GetFirstPage@WizardEx@@QAGPAVWizardPage@@XZ
?GetFontCharSet@WizardUI@@QAEKXZ
?GetFontName@WizardUI@@QAEPBGXZ
?GetFontSize@WizardUI@@QAEIXZ
?GetHWnd@WizardPage@@QAGPAUHWND__@@XZ
?GetHdc@CDIB@@QBEPAUHDC__@@XZ
?GetIndex@WizardNode@@QAGIXZ
?GetInstance@CCursor@@SGPAV1@XZ
?GetInstance@CHighContrast@@SGPAV1@XZ
?GetLength@?$CSimpleStringT@G$0A@@ATL@@QBEHXZ
?GetManager@?$CSimpleStringT@G$0A@@ATL@@QBEPAUIAtlStringMgr@2@XZ
?GetManager@?$CStringT@GV?$StrTraitATL@GV?$ChTraitsCRT@G@ATL@@@ATL@@@ATL@@QBEPAUIAtlStringMgr@2@XZ
?GetMaxCount@WizardEx@@QAGIXZ
?GetMaxPageIndex@PageContainer@@QAGHXZ
?GetNavBarHeight@ProtoPageDimensions@@QAEHXZ
?GetNavHWnd@WizardUI@@QAEPAUHWND__@@XZ
?GetNavRect@AppWindow@@QAGXPAUtagRECT@@@Z
?GetPage@WizardEx@@UAGPAVWizardPage@@XZ
?GetPage@WizardPage@@UAGPAV1@XZ
?GetPageContainer@WizardUI@@QAEPAVPageContainer@@XZ
?GetPageHandler@WizardRoot@@UAEPAVWizardHandler@@XZ
?GetPageHwndFromPageIndex@PageContainer@@QAGPAUHWND__@@H@Z
?GetPageIndex@WizardEx@@QAGIXZ
?GetPageIndex@WizardNode@@QAGIXZ
?GetPageList@WizardEx@@QAGPAPAVWizardNode@@XZ
?GetPageListItem@WizardEx@@QAGPAVWizardNode@@H@Z
?GetPageName@WizardRoot@@QAG?AV?$CStringT@GV?$StrTraitATL@GV?$ChTraitsCRT@G@ATL@@@ATL@@@ATL@@XZ
?GetParent@WizardNode@@QAGPAVWizardEx@@XZ
?GetPidStr@PIDStringView@@QAEPBGXZ
?GetResourceInstance@CResourceModule@@QAEPAUHINSTANCE__@@XZ
?GetResourceInstance@CResourceModuleFactory@@QAEPAUHINSTANCE__@@XZ
?GetResourceInstanceLoc@WizardPage@@QAGPAUHINSTANCE__@@XZ
?GetResourceInstanceLoc@WizardUI@@QAEPAUHINSTANCE__@@XZ
?GetResourceInstanceNonLoc@WizardPage@@QAGPAUHINSTANCE__@@XZ
?GetResourceInstanceNonLoc@WizardUI@@QAEPAUHINSTANCE__@@XZ
?GetResourceLocName@Wizard_PageDesciption@@QAGPBGXZ
?GetResourceModule@CResourceModuleFactory@@QAEPAVCResourceModule@@XZ
?GetResourceNonLocName@Wizard_PageDesciption@@QAGPBGXZ
?GetResourceStringLoc@WizardPage@@QAGPBGXZ
?GetRoot@WizardHandler@@QAEPAVWizardRoot@@XZ
?GetScaledBackgroundBitmapSize@ProtoPageDimensions@@QAE?AUSimpleSize@@XZ
?GetScalingFactor@ProtoPageDimensions@@QAEXAAM@Z
?GetScrHWnd@WizardUI@@QAEPAUHWND__@@XZ
?GetScrImage@ScrWindow@@QAGPAUHDC__@@XZ
?GetScrRect@ScrWindow@@QAGXPAUtagRECT@@@Z
?GetScrWindow@WizardUI@@QAEPAVScrWindow@@XZ
?GetScreenBitmap@WizardUI@@SGGXZ
?GetScreenBitmapSize@ProtoPageDimensions@@QAE?AUSimpleSize@@XZ
?GetSelectedLanguage@LanguageSelectionDialogBase@@AAE?AV?$CStringT@GV?$StrTraitATL@GV?$ChTraitsCRT@G@ATL@@@ATL@@@ATL@@XZ
?GetSelectedLocale@LanguageSelectionDialogBase@@AAE?AV?$CStringT@GV?$StrTraitATL@GV?$ChTraitsCRT@G@ATL@@@ATL@@@ATL@@XZ
?GetShowScreenWindow@WizardUI@@QAEHXZ
?GetSize@?$CSimpleArray@PAGV?$CSimpleArrayEqualHelper@PAG@ATL@@@ATL@@QBEHXZ
?GetSize@?$CSimpleArray@PAUIResourceModuleEvent@@V?$CSimpleArrayEqualHelper@PAUIResourceModuleEvent@@@ATL@@@ATL@@QBEHXZ
?GetSize@?$CSimpleArray@PAUKEYBOARD@@V?$CSimpleArrayEqualHelper@PAUKEYBOARD@@@ATL@@@ATL@@QBEHXZ
?GetSize@?$CSimpleArray@PAULANGUAGE@@V?$CSimpleArrayEqualHelper@PAULANGUAGE@@@ATL@@@ATL@@QBEHXZ
?GetSize@?$CSimpleArray@PAULOCALE@@V?$CSimpleArrayEqualHelper@PAULOCALE@@@ATL@@@ATL@@QBEHXZ
?GetSize@NavigationStack@@QAGHXZ
?GetStrategy@WizardEx@@QAGPAVWizardStrategy@@XZ
?GetString@?$CSimpleStringT@G$0A@@ATL@@QBEPBGXZ
?GetString@MyString@@QAEPBGXZ
?GetTemplate@WizardPage@@QAGKXZ
?GetTemplate@Wizard_PageDesciption@@QAGKXZ
?GetTextColor@CHighContrast@@QAGKK@Z
?GetTitle@WizardPage@@QAGKXZ
?GetTitle@Wizard_PageDesciption@@QAGKXZ
?GetTop@NavigationStack@@QAGPAVWizardNode@@XZ
?GetTransparentColor@CDIB@@QAEKXZ
?GetType@WizardNode@@QAGIXZ
?GetUiMutex@WizardUI@@QAEPAXXZ
?GetUserSelectedHideOOBELang@WizardUI@@QAEPAGXZ
?GetUserSelectedKeyboardType@WizardUI@@QAEPAGXZ
?GetUserSelectedLDId@WizardUI@@QAEPAGXZ
?GetUserSelectedLocale@WizardUI@@QAEPAGXZ
?GetUserSelectedTargetLanguage@WizardUI@@QAEPAGXZ
?GetUserSelectedUILanguage@WizardUI@@QAEPAGXZ
?GetWindowProc@WizardPage@@QAGP6GHPAUHWND__@@IIJ@ZXZ
?GetWindowProc@WizardRoot@@UAEP6GHPAUHWND__@@IIJ@ZXZ
?GetWizNodeType@Wiz_Node@@QAEIXZ
?GetWizUI@WizardNode@@QAGPAVWizardUI@@XZ
?GetWizUI@WizardUI@@SGPAV1@XZ
?GetWizardPageWithIndex@PageContainer@@QAGPAVWizardPage@@H@Z
?GetWizardPageWithPageIndex@WizardUI@@QAEPAVWizardPage@@H@Z
?GetWizardRect@AppWindow@@QAGXPAUtagRECT@@@Z
?HdcBackground@WizardUI@@SGPAUHDC__@@XZ
?Hdlg@CAttachDataDlg@@QAEPAUHWND__@@XZ
?Hdlg@CGenericNavWindow@@QAEAAPAUHWND__@@XZ
?Hdlg@WizardHandler@@QAEPAUHWND__@@XZ
?Hdlg@WizardRoot@@QAEAAPAUHWND__@@XZ
?Hide@CWndObj@@UAGXXZ
?HideSplashScreen@WizardUI@@AAEXXZ
?HwndBackground@WizardUI@@SGPAUHWND__@@XZ
?HwndProgress@WizardUI@@SGPAUHWND__@@XZ
?Init@AppWindow@@QAGHIII@Z
?Init@CAnimationControl@@QAGHPAUHWND__@@IPAUHINSTANCE__@@IKHH@Z
?Init@CCtlText@@QAGHPAUHWND__@@I@Z
?Init@CCustomGraphicEx@@QAGHPAUHWND__@@I@Z
?Init@CResourceModuleFactory@@QAEXPAUHINSTANCE__@@@Z
?Init@CResourceModuleFactory@@QAEXPAUHINSTANCE__@@PBG@Z
?Init@CScreenText@@QAEHXZ
?Init@CWndObj@@UAGHPAUIWndObj@@@Z
?Init@ProtoPageDimensions@@QAEHXZ
?Init@ScrWindow@@QAGHI@Z
?Init@WizardHandler@@QAEXPAVWizardRoot@@@Z
?InitAllStandardButtons@WizardRoot@@QAGXXZ
?InitButtons@CGenericNavWindow@@MAEXXZ
?InitDialog@CAttachDataDlg@@SGXPAUHWND__@@IIJ@Z
?InitDialog@CGenericNavWindow@@AAEXPAUHWND__@@@Z
?InitFonts@WizardUI@@AAEHPAUHINSTANCE__@@@Z
?InitLangNeutralLV@LanguageNeutralSelectionDialogBase@@AAEXXZ
?InitPage@WizardHandler@@UAEXXZ
?InitStandardButton@WizardRoot@@QAGPAVCCustomButtonEx@@I@Z
?InitSurface@CGenericNavWindow@@AAEXXZ
?Initialize@CHighContrast@@QAGHXZ
?Initialize@CRichEditControl@@QAGXPAUHWND__@@PBG@Z
?Initialize@WizardPage@@QAGXKKKPAVWizardRoot@@PBG1@Z
?Initialize@WizardUI@@QAEHPAVCResourceModule@@0@Z
?InitializeWithMsftEdit@CRichEditControl@@QAGXPAUHWND__@@@Z
?Insert@?$CStringT@GV?$StrTraitATL@GV?$ChTraitsCRT@G@ATL@@@ATL@@@ATL@@QAEHHG@Z
?Insert@?$CStringT@GV?$StrTraitATL@GV?$ChTraitsCRT@G@ATL@@@ATL@@@ATL@@QAEHHPBG@Z
?InsertChar@MyString@@QAEHHG@Z
?InsertString@MyString@@QAEHHPBG@Z
?InsertString@PIDStringView@@QAEHHPBG@Z
?InstallFont@WizardUI@@AAEHPAUHINSTANCE__@@@Z
?InternalSetAtIndex@?$CSimpleArray@PAGV?$CSimpleArrayEqualHelper@PAG@ATL@@@ATL@@QAEXHABQAG@Z
?InternalSetAtIndex@?$CSimpleArray@PAUIResourceModuleEvent@@V?$CSimpleArrayEqualHelper@PAUIResourceModuleEvent@@@ATL@@@ATL@@QAEXHABQAUIResourceModuleEvent@@@Z
?InternalSetAtIndex@?$CSimpleArray@PAUKEYBOARD@@V?$CSimpleArrayEqualHelper@PAUKEYBOARD@@@ATL@@@ATL@@QAEXHABQAUKEYBOARD@@@Z
?InternalSetAtIndex@?$CSimpleArray@PAULANGUAGE@@V?$CSimpleArrayEqualHelper@PAULANGUAGE@@@ATL@@@ATL@@QAEXHABQAULANGUAGE@@@Z
?InternalSetAtIndex@?$CSimpleArray@PAULOCALE@@V?$CSimpleArrayEqualHelper@PAULOCALE@@@ATL@@@ATL@@QAEXHABQAULOCALE@@@Z
?IsAppMirrored@AppWindow@@QAGHXZ
?IsCancelRequest@WizardUI@@AAEHPAUtagMSG@@@Z
?IsControlKeys@WizardUI@@AAEHPAUHWND__@@PAUtagMSG@@@Z
?IsDPIScalingRequired@@YGHXZ
?IsDialogMessageW@PageContainer@@QAGHPAUtagMSG@@@Z
?IsDlgMsg@CWndObj@@UAGHPAUtagMSG@@@Z
?IsEmpty@?$CSimpleStringT@G$0A@@ATL@@QBE_NXZ
?IsFunctionKeys@WizardUI@@AAEHPAUHWND__@@PAUtagMSG@@@Z
?IsHighContrast@CHighContrast@@QAGHXZ
?IsInitialized@CDIB@@QAEHXZ
?IsInitialized@ProtoPageDimensions@@QAEHXZ
?IsLanguageSelectionUiShown@LanguageSelectionDialogBase@@SGHXZ
?IsMinimizeRequest@WizardUI@@AAEHPAUtagMSG@@@Z
?IsStandardSizing@ProtoPageDimensions@@QAEHXZ
?IsWDS@LanguageNeutralSelectionDialogBase@@UAEHXZ
?IsWDS@LanguageSelectionDialogBase@@UAEHXZ
?KillActive@WizardHandler@@UAEXAAH@Z
?KillActive@WizardRoot@@UAEXXZ
?LangNeutralLVSubProc@LanguageNeutralSelectionDialogBase@@CGJPAUHWND__@@IIJ@Z
?Leave@CCritSec@@UAEXXZ
?LeavingTrackedWnd@CCursor@@QAEHPAUHWND__@@@Z
?Left@?$CStringT@GV?$StrTraitATL@GV?$ChTraitsCRT@G@ATL@@@ATL@@@ATL@@QBE?AV12@H@Z
?Load32FromOther@CDIB@@AAEHPAV1@@Z
?Load@CAnimation@@QAEHPAUHINSTANCE__@@IKHJJ@Z
?Load@CDIB@@QAEHPAUHINSTANCE__@@IKH@Z
?Load@CDrawBackground@@QAEHPAUHWND__@@PAUHDC__@@0@Z
?Load@CScreenDIB@@QAEHPAUHINSTANCE__@@IK@Z
?LoadBackground@AppWindow@@QAGXXZ
?LoadBitmapW@CHighContrast@@QAGPAUHBITMAP__@@PAUHINSTANCE__@@IHHI@Z
?LoadFontInfo@WizardUI@@AAEXXZ
?LoadLibraryW@CResourceModule@@AAEXXZ
?LoadScaled@CDIB@@QAEHPAUHINSTANCE__@@IJJKH@Z
?LoadScaledByDPI@CDIB@@QAEHPAUHINSTANCE__@@IKH@Z
?LoadScaledFromOther@CDIB@@QAEHPAV1@JJH@Z
?LoadStringResources@LanguageSelectionDialogBase@@QAEXXZ
?LoadStringW@?$CStringT@GV?$StrTraitATL@GV?$ChTraitsCRT@G@ATL@@@ATL@@@ATL@@QAEHI@Z
?LoadStringW@?$CStringT@GV?$StrTraitATL@GV?$ChTraitsCRT@G@ATL@@@ATL@@@ATL@@QAEHPAUHINSTANCE__@@I@Z
?LoadStringW@?$CStringT@GV?$StrTraitATL@GV?$ChTraitsCRT@G@ATL@@@ATL@@@ATL@@QAEHPAUHINSTANCE__@@IG@Z
?LockBuffer@?$CSimpleStringT@G$0A@@ATL@@QAEPAGXZ
?MakeFullyOpaque@CDIB@@AAEXXZ
?MakeLower@?$CStringT@GV?$StrTraitATL@GV?$ChTraitsCRT@G@ATL@@@ATL@@@ATL@@QAEAAV12@XZ
?MakeReverse@?$CStringT@GV?$StrTraitATL@GV?$ChTraitsCRT@G@ATL@@@ATL@@@ATL@@QAEAAV12@XZ
?MakeUpper@?$CStringT@GV?$StrTraitATL@GV?$ChTraitsCRT@G@ATL@@@ATL@@@ATL@@QAEAAV12@XZ
?MessageBoxFromMessage@@YGHPAUHINSTANCE__@@PAUHWND__@@III@Z
?MessageBoxFromMessage@@YGHPAUHINSTANCE__@@PAUHWND__@@PBGII@Z
?MessageBoxFromMessageWithTimeout@@YGHPAUHINSTANCE__@@PAUHWND__@@IIIIH@Z
?MessageBoxFromMessageWithTimeout@@YGHPAUHINSTANCE__@@PAUHWND__@@PBGIIIH@Z
?MessagePump@WizardUI@@AAEXXZ
?Mid@?$CStringT@GV?$StrTraitATL@GV?$ChTraitsCRT@G@ATL@@@ATL@@@ATL@@QBE?AV12@H@Z
?Mid@?$CStringT@GV?$StrTraitATL@GV?$ChTraitsCRT@G@ATL@@@ATL@@@ATL@@QBE?AV12@HH@Z
?MirrorImage@CDIB@@QAEXXZ
?Move@CWndObj@@UAGXPAUtagPOINT@@@Z
?MyPropSheet_GetWizButtons@WizardRoot@@QAGKXZ
?MyPropSheet_SetWizButtons@WizardRoot@@QAGXK@Z
?NeedToRedrawNavWindow@WizardUI@@AAEHXZ
?Next@Navigator@@UAGPAVWizardPage@@HPAVWizardNode@@@Z
?Next@Navigator@@UAGPAVWizardPage@@PAVWizardNode@@@Z
?Next@WizardEx@@UAGPAVWizardPage@@HPAVWizardNode@@@Z
?Next@WizardEx@@UAGPAVWizardPage@@PAVWizardNode@@@Z
?NextPage@BranchWizStrategy@@UAEPAVWizardPage@@HPAVWizardNode@@@Z
?NextPage@SimpleWizStrategy@@UAEPAVWizardPage@@HPAVWizardNode@@@Z
?NextPage@SummaryWizStrategy@@UAEPAVWizardPage@@HPAVWizardNode@@@Z
?NextPage@VariationWizStrategy@@UAEPAVWizardPage@@HPAVWizardNode@@@Z
?NextPageHelper@ChoiceWizStrategy@@IAEPAVWizardPage@@HPAVWizardNode@@@Z
?NotifyWizBack@WizardHandler@@UAEHAAH@Z
?NotifyWizBack@WizardRoot@@UAEHXZ
?NotifyWizCancel@WizardHandler@@UAEHAAH@Z
?NotifyWizCancel@WizardRoot@@UAEHXZ
?NotifyWizFinish@WizardHandler@@UAEHAAH@Z
?NotifyWizFinish@WizardRoot@@UAEHXZ
?NotifyWizNext@WizardHandler@@UAEHAAH@Z
?NotifyWizNext@WizardRoot@@UAEHXZ
?OemToCharA@?$CStringT@GV?$StrTraitATL@GV?$ChTraitsCRT@G@ATL@@@ATL@@@ATL@@QAEXXZ
?OnActivate@AppWindow@@MAGJIJ@Z
?OnActivate@CWndObj@@MAGJIJ@Z
?OnActivate@ScrWindow@@MAGJIJ@Z
?OnActivateApp@CWndObj@@MAGJIJ@Z
?OnApp@CWndObj@@MAGJIIJ@Z
?OnAskCBFormatName@CWndObj@@MAGJIJ@Z
?OnBack@AppWindow@@MAGJIIJ@Z
?OnBack@CGenericNavWindow@@QAEJGGPAUHWND__@@AAH@Z
?OnCancel@AppWindow@@MAGJIIJ@Z
?OnCancel@CGenericNavWindow@@QAEJGGPAUHWND__@@AAH@Z
?OnCancelJournal@CWndObj@@MAGJIJ@Z
?OnCancelMode@CWndObj@@MAGJIJ@Z
?OnCaptureChanged@CWndObj@@MAGJIJ@Z
?OnChangeCBChain@CWndObj@@MAGJIJ@Z
?OnChar@CWndObj@@MAGJIJ@Z
?OnCharToItem@CWndObj@@MAGJIJ@Z
?OnChildActivate@CWndObj@@MAGJIJ@Z
?OnClose@AppWindow@@MAGJIJ@Z
?OnClose@CWndObj@@MAGJIJ@Z
?OnClose@ScrWindow@@MAGJIJ@Z
?OnCommand@AppWindow@@MAGJIJ@Z
?OnCommand@CWndObj@@MAGJIJ@Z
?OnCommand@ScrWindow@@MAGJIJ@Z
?OnCommandBack@WizardDialogPost@@QAEJGGPAUHWND__@@AAH@Z
?OnCommandCancel@WizardDialogPost@@QAEJGGPAUHWND__@@AAH@Z
?OnCommandContinue@LanguageSelectionDialogBase@@QAEJGGPAUHWND__@@AAH@Z
?OnCommandContinue@WizardDialogPost@@QAEJGGPAUHWND__@@AAH@Z
?OnCommandFinish@WizardDialogPost@@QAEJGGPAUHWND__@@AAH@Z
?OnCompacting@CWndObj@@MAGJIJ@Z
?OnCompareItem@CWndObj@@MAGJIJ@Z
?OnContextMenu@CWndObj@@MAGJIJ@Z
?OnCopyData@CWndObj@@MAGJIJ@Z
?OnCreate@AppWindow@@MAGJIJ@Z
?OnCreate@CWndObj@@MAGJIJ@Z
?OnCreate@ScrWindow@@MAGJIJ@Z
?OnCtlColor@CGenericNavWindow@@QAEJIIJAAH@Z
?OnCtlColorBtn@CWndObj@@MAGJIJ@Z
?OnCtlColorDlg@CWndObj@@MAGJIJ@Z
?OnCtlColorEdit@CWndObj@@MAGJIJ@Z
?OnCtlColorListbox@CWndObj@@MAGJIJ@Z
?OnCtlColorMsgbox@CWndObj@@MAGJIJ@Z
?OnCtlColorScrollbar@CWndObj@@MAGJIJ@Z
?OnCtlColorStatic@CWndObj@@MAGJIJ@Z
?OnCtlColorStatic@SimpleDialogBase@@QAEJIIJAAH@Z
?OnCtlColorStatic@WizardDialogPost@@QAEJIIJAAH@Z
?OnCustomDraw@LanguageNeutralSelectionDialogBase@@QAEJHPAUtagNMHDR@@AAH@Z
?OnDeadChar@CWndObj@@MAGJIJ@Z
?OnDeleteItem@CWndObj@@MAGJIJ@Z
?OnDestroy@AppWindow@@MAGJIJ@Z
?OnDestroy@CGenericNavWindow@@QAEJIIJAAH@Z
?OnDestroy@CWndObj@@MAGJIJ@Z
?OnDestroy@ScrWindow@@MAGJIJ@Z
?OnDestroy@WizardDialogPre@@QAEJIIJAAH@Z
?OnDestroyClipboard@CWndObj@@MAGJIJ@Z
?OnDeviceChange@AppWindow@@MAGJIJ@Z
?OnDeviceChange@CWndObj@@MAGJIJ@Z
?OnDeviceChange@ScrWindow@@MAGJIJ@Z
?OnDevmodeChange@CWndObj@@MAGJIJ@Z
?OnDisplayChange@CGenericNavWindow@@QAEJIIJAAH@Z
?OnDisplayChange@CWndObj@@MAGJIJ@Z
?OnDisplayChange@ScrWindow@@MAGJIJ@Z
?OnDrawClipboard@CWndObj@@MAGJIJ@Z
?OnDrawItem@CGenericNavWindow@@QAEJIIJAAH@Z
?OnDrawItem@CWndObj@@MAGJIJ@Z
?OnDrawItem@WizardDialogPre@@QAEJIIJAAH@Z
?OnDropFiles@CWndObj@@MAGJIJ@Z
?OnEnable@CWndObj@@MAGJIJ@Z
?OnEndSession@CWndObj@@MAGJIJ@Z
?OnEnterIdle@CWndObj@@MAGJIJ@Z
?OnEnterMenuLoop@CWndObj@@MAGJIJ@Z
?OnEnterSizeMove@CWndObj@@MAGJIJ@Z
?OnEraseBkGnd@AppWindow@@MAGJIJ@Z
?OnEraseBkGnd@CWndObj@@MAGJIJ@Z
?OnEraseBkGnd@ScrWindow@@MAGJIJ@Z
?OnEraseBkGnd@WizardDialogPre@@QAEJIIJAAH@Z
?OnExitMenuLoop@CWndObj@@MAGJIJ@Z
?OnExitSizeMove@CWndObj@@MAGJIJ@Z
?OnFontChange@CWndObj@@MAGJIJ@Z
?OnGetButtons@AppWindow@@MAGJIIJ@Z
?OnGetButtons@CGenericNavWindow@@QAEJIIJAAH@Z
?OnGetDefID@AppWindow@@MAGJIIJ@Z
?OnGetDlgCode@CWndObj@@MAGJIJ@Z
?OnGetIcon@CWndObj@@MAGJIJ@Z
?OnGetMinMaxInfo@CWndObj@@MAGJIJ@Z
?OnGetText@CWndObj@@MAGJIJ@Z
?OnGetTextLength@CWndObj@@MAGJIJ@Z
?OnHScroll@CWndObj@@MAGJIJ@Z
?OnHelp@CWndObj@@MAGJIJ@Z
?OnHotKey@CWndObj@@MAGJIJ@Z
?OnInitDialog@CGenericNavWindow@@QAEJIIJAAH@Z
?OnInitDialog@CWndObj@@MAGJIJ@Z
?OnInitDialog@LanguageNeutralSelectionDialogBase@@QAEJIIJAAH@Z
?OnInitDialog@LanguageSelectionDialogBase@@QAEJIIJAAH@Z
?OnInitDialog@WizardDialogPre@@QAEJIIJAAH@Z
?OnKeyDown@CWndObj@@MAGJIJ@Z
?OnKeyUp@CWndObj@@MAGJIJ@Z
?OnKeyUp@LanguageNeutralSelectionDialogBase@@QAEJIIJAAH@Z
?OnKillFocus@CWndObj@@MAGJIJ@Z
?OnLButtonDblClk@CWndObj@@MAGJIJ@Z
?OnLButtonDown@CWndObj@@MAGJIJ@Z
?OnLButtonUp@CWndObj@@MAGJIJ@Z
?OnLanguageChange@LanguageSelectionDialogBase@@QAEJGGPAUHWND__@@AAH@Z
?OnLanguageSelect@LanguageNeutralSelectionDialogBase@@QAEJHPAUtagNMHDR@@AAH@Z
?OnLocaleChange@LanguageSelectionDialogBase@@QAEJGGPAUHWND__@@AAH@Z
?OnMeasureItem@CWndObj@@MAGJIJ@Z
?OnMenuChar@CWndObj@@MAGJIJ@Z
?OnMenuSelect@CWndObj@@MAGJIJ@Z
?OnMouseActivate@CWndObj@@MAGJIJ@Z
?OnMouseLeave@CWndObj@@MAGJIJ@Z
?OnMouseMove@CWndObj@@MAGJIJ@Z
?OnMouseOver@LanguageNeutralSelectionDialogBase@@QAEJHPAUtagNMHDR@@AAH@Z
?OnMove@CWndObj@@MAGJIJ@Z
?OnMoving@CWndObj@@MAGJIJ@Z
?OnNCCalcSize@CWndObj@@MAGJIJ@Z
?OnNCCreate@CWndObj@@MAGJIJ@Z
?OnNCDestroy@CWndObj@@MAGJIJ@Z
?OnNCHitTest@CWndObj@@MAGJIJ@Z
?OnNCPaint@CWndObj@@MAGJIJ@Z
?OnNotify@CWndObj@@MAGJIJ@Z
?OnNull@CWndObj@@MAGJIJ@Z
?OnPaint@AppWindow@@MAGJIJ@Z
?OnPaint@CGenericNavWindow@@QAEJIIJAAH@Z
?OnPaint@CWndObj@@MAGJIJ@Z
?OnPaint@ScrWindow@@MAGJIJ@Z
?OnPaintClipboard@CWndObj@@MAGJIJ@Z
?OnParentNotify@CWndObj@@MAGJIJ@Z
?OnPower@CWndObj@@MAGJIJ@Z
?OnPowerBroadcast@CWndObj@@MAGJIJ@Z
?OnQueryEndSession@CWndObj@@MAGJIJ@Z
?OnQueryOpen@CWndObj@@MAGJIJ@Z
?OnQuit@CWndObj@@MAGJIJ@Z
?OnRButtonDblClk@CWndObj@@MAGJIJ@Z
?OnRButtonDown@CWndObj@@MAGJIJ@Z
?OnRButtonUp@CWndObj@@MAGJIJ@Z
?OnRegistered@AppWindow@@MAGJIIJ@Z
?OnRegistered@CWndObj@@MAGJIIJ@Z
?OnRegistered@ScrWindow@@MAGJIIJ@Z
?OnRenderAllFormats@CWndObj@@MAGJIJ@Z
?OnRenderFormat@CWndObj@@MAGJIJ@Z
?OnResourceChanged@LanguageSelectionDialogBase@@UAEXAAH@Z
?OnResourceChanged@WizardHandler@@UAEXAAH@Z
?OnResourceChanged@WizardRoot@@UAEXXZ
?OnSetBitmap@AppWindow@@MAGJIIJ@Z
?OnSetBitmap@CGenericNavWindow@@QAEJIIJAAH@Z
?OnSetButtons@AppWindow@@MAGJIIJ@Z
?OnSetButtons@CGenericNavWindow@@QAEJIIJAAH@Z
?OnSetCaption@AppWindow@@MAGJIIJ@Z
?OnSetCaption@CGenericNavWindow@@QAEJIIJAAH@Z
?OnSetCursor@AppWindow@@MAGJIJ@Z
?OnSetCursor@CWndObj@@MAGJIJ@Z
?OnSetCursor@ScrWindow@@MAGJIJ@Z
?OnSetFocus@CWndObj@@MAGJIJ@Z
?OnSetRedraw@CWndObj@@MAGJIJ@Z
?OnSetText@CWndObj@@MAGJIJ@Z
?OnSettingChange@CWndObj@@MAGJIJ@Z
?OnShowWindow@CWndObj@@MAGJIJ@Z
?OnSize@CWndObj@@MAGJIJ@Z
?OnSizeClipboard@CWndObj@@MAGJIJ@Z
?OnSizing@CWndObj@@MAGJIJ@Z
?OnSysChar@CWndObj@@MAGJIJ@Z
?OnSysColorChange@CWndObj@@MAGJIJ@Z
?OnSysCommand@CWndObj@@MAGJIJ@Z
?OnTimer@CWndObj@@MAGJIJ@Z
?OnUser@AppWindow@@MAGJIIJ@Z
?OnUser@CWndObj@@MAGJIIJ@Z
?OnUser@ScrWindow@@MAGJIIJ@Z
?OnVScroll@CWndObj@@MAGJIJ@Z
?OnVScrollClipboard@CWndObj@@MAGJIJ@Z
?OnWindowPosChanged@CWndObj@@MAGJIJ@Z
?OnWindowPosChanging@CWndObj@@MAGJIJ@Z
?OnWmxClose@AppWindow@@MAGJIIJ@Z
?OnWmxClose@ScrWindow@@MAGJIIJ@Z
?PageData@WizardHandler@@QAEPAVWizardPage@@XZ
?PageData@WizardRoot@@QAEAAPAVWizardPage@@XZ
?Pop@NavigationStack@@QAGPAVWizardNode@@XZ
?PopulateKeyboardList@LanguageSelectionDialogBase@@AAEIXZ
?PopulateLanguageList@LanguageSelectionDialogBase@@AAEIXZ
?PopulateLayeredDriverList@LanguageSelectionDialogBase@@AAEIXZ
?PopulateLocaleList@LanguageSelectionDialogBase@@AAEHXZ
?Post@CWndObj@@UAGHIIJ@Z
?Preallocate@?$CSimpleStringT@G$0A@@ATL@@QAEXH@Z
?PrepareWrite2@?$CSimpleStringT@G$0A@@ATL@@AAEXH@Z
?PrepareWrite@?$CSimpleStringT@G$0A@@ATL@@AAEPAGH@Z
?ProcessLanguageSelection@LanguageSelectionDialogBase@@UAEHAAH@Z
?ProcessSelectedLanguage@LanguageNeutralSelectionDialogBase@@AAEXXZ
?ProcessWindowMessage@CAttachDataDlg@@UAEHPAUHWND__@@IIJAAJK@Z
?ProcessWindowMessage@CGenericNavWindow@@UAEHPAUHWND__@@IIJAAJK@Z
?ProcessWindowMessage@LanguageNeutralSelectionDialogBase@@UAEHPAUHWND__@@IIJAAJK@Z
?ProcessWindowMessage@LanguageSelectionDialogBase@@UAEHPAUHWND__@@IIJAAJK@Z
?ProcessWindowMessage@SimpleDialogBase@@UAEHPAUHWND__@@IIJAAJK@Z
?ProcessWindowMessage@WizardDialogPost@@UAEHPAUHWND__@@IIJAAJK@Z
?ProcessWindowMessage@WizardDialogPre@@UAEHPAUHWND__@@IIJAAJK@Z
?PseudoToScreenCoordinate@ProtoPageDimensions@@QAEXAAH0@Z
?Pulse@CAnimation@@QAEXXZ
?PumpMessage@WizardUI@@AAEXUtagMSG@@@Z
?Push@NavigationStack@@QAGHPAVWizardNode@@@Z
?QueryInterface@CWndObj@@UAGJABU_GUID@@PAPAX@Z
?ReadSelectedKeyboardType@LanguageSelectionDialogBase@@AAEXXZ
?ReadSelectedLanguage@LanguageSelectionDialogBase@@AAEXXZ
?ReadSelectedLayeredDriver@LanguageSelectionDialogBase@@AAEXXZ
?ReadSelectedLocale@LanguageSelectionDialogBase@@AAEXXZ
?Reallocate@?$CSimpleStringT@G$0A@@ATL@@AAEXH@Z
?RectDest@CGenericNavWindow@@QAEAAUtagRECT@@XZ
?Refresh@CDrawItem@@QAEHXZ
?RegisterObserver@CResourceModule@@QAEHPAUIResourceModuleEvent@@@Z
?ReinstantiatePages@PageContainer@@QAGXXZ
?Release@CWndObj@@UAGKXZ
?ReleaseBuffer@?$CSimpleStringT@G$0A@@ATL@@QAEXH@Z
?ReleaseBufferSetLength@?$CSimpleStringT@G$0A@@ATL@@QAEXH@Z
?Reload@WizardRoot@@QAGXXZ
?ReloadAllStandardButtons@WizardRoot@@QAGXXZ
?ReloadCaptions@CCustomButtonEx@@QAEXPAUHINSTANCE__@@@Z
?Remove@?$CSimpleArray@PAGV?$CSimpleArrayEqualHelper@PAG@ATL@@@ATL@@QAEHABQAG@Z
?Remove@?$CSimpleArray@PAUIResourceModuleEvent@@V?$CSimpleArrayEqualHelper@PAUIResourceModuleEvent@@@ATL@@@ATL@@QAEHABQAUIResourceModuleEvent@@@Z
?Remove@?$CSimpleArray@PAUKEYBOARD@@V?$CSimpleArrayEqualHelper@PAUKEYBOARD@@@ATL@@@ATL@@QAEHABQAUKEYBOARD@@@Z
?Remove@?$CSimpleArray@PAULANGUAGE@@V?$CSimpleArrayEqualHelper@PAULANGUAGE@@@ATL@@@ATL@@QAEHABQAULANGUAGE@@@Z
?Remove@?$CSimpleArray@PAULOCALE@@V?$CSimpleArrayEqualHelper@PAULOCALE@@@ATL@@@ATL@@QAEHABQAULOCALE@@@Z
?Remove@?$CStringT@GV?$StrTraitATL@GV?$ChTraitsCRT@G@ATL@@@ATL@@@ATL@@QAEHG@Z
?RemoveAll@?$CSimpleArray@PAGV?$CSimpleArrayEqualHelper@PAG@ATL@@@ATL@@QAEXXZ
?RemoveAll@?$CSimpleArray@PAUIResourceModuleEvent@@V?$CSimpleArrayEqualHelper@PAUIResourceModuleEvent@@@ATL@@@ATL@@QAEXXZ
?RemoveAll@?$CSimpleArray@PAUKEYBOARD@@V?$CSimpleArrayEqualHelper@PAUKEYBOARD@@@ATL@@@ATL@@QAEXXZ
?RemoveAll@?$CSimpleArray@PAULANGUAGE@@V?$CSimpleArrayEqualHelper@PAULANGUAGE@@@ATL@@@ATL@@QAEXXZ
?RemoveAll@?$CSimpleArray@PAULOCALE@@V?$CSimpleArrayEqualHelper@PAULOCALE@@@ATL@@@ATL@@QAEXXZ
?RemoveAt@?$CSimpleArray@PAGV?$CSimpleArrayEqualHelper@PAG@ATL@@@ATL@@QAEHH@Z
?RemoveAt@?$CSimpleArray@PAUIResourceModuleEvent@@V?$CSimpleArrayEqualHelper@PAUIResourceModuleEvent@@@ATL@@@ATL@@QAEHH@Z
?RemoveAt@?$CSimpleArray@PAUKEYBOARD@@V?$CSimpleArrayEqualHelper@PAUKEYBOARD@@@ATL@@@ATL@@QAEHH@Z
?RemoveAt@?$CSimpleArray@PAULANGUAGE@@V?$CSimpleArrayEqualHelper@PAULANGUAGE@@@ATL@@@ATL@@QAEHH@Z
?RemoveAt@?$CSimpleArray@PAULOCALE@@V?$CSimpleArrayEqualHelper@PAULOCALE@@@ATL@@@ATL@@QAEHH@Z
?RemoveChar@MyString@@QAEHH@Z
?RemoveFonts@WizardUI@@AAEXXZ
?RemoveString@MyString@@QAEHHH@Z
?RemoveString@PIDStringView@@QAEHHHH@Z
?Replace@?$CStringT@GV?$StrTraitATL@GV?$ChTraitsCRT@G@ATL@@@ATL@@@ATL@@QAEHGG@Z
?Replace@?$CStringT@GV?$StrTraitATL@GV?$ChTraitsCRT@G@ATL@@@ATL@@@ATL@@QAEHPBG0@Z
?ReplaceString@PIDStringView@@QAEHHHPBG@Z
?RepositionAllWindows@WizardUI@@QAEXIJ@Z
?RepositionAppWindow@WizardUI@@AAEXXZ
?RepositionNavWindow@WizardUI@@AAEXIJ@Z
?RepositionProgressWindow@WizardUI@@AAEXIJ@Z
?RequestCancel@Win32Navigator@@UAGXXZ
?RequestFinish@Win32Navigator@@UAGXXZ
?RequestGoBack@Win32Navigator@@UAGXXZ
?RequestGoNext@Win32Navigator@@UAGXH@Z
?RequestGoNext@Win32Navigator@@UAGXXZ
?Reset@PageContainer@@QAGHH@Z
?Reset@WizardEx@@UAGHXZ
?Reset@WizardPage@@UAGHXZ
?ResetLanguage@AppWindow@@QAGHXZ
?ResetLanguage@CResourceModule@@QAEHXZ
?ResetLanguage@CResourceModuleFactory@@QAEHXZ
?ResetLanguage@WizardUI@@QAEHPBG@Z
?ResetWizUI@WizardUI@@CGXXZ
?Resize@CDIB@@QAEHJJ@Z
?ReverseFind@?$CStringT@GV?$StrTraitATL@GV?$ChTraitsCRT@G@ATL@@@ATL@@@ATL@@QBEHG@Z
?Right@?$CStringT@GV?$StrTraitATL@GV?$ChTraitsCRT@G@ATL@@@ATL@@@ATL@@QBE?AV12@H@Z
?ScreenToPseudoCoordinate@ProtoPageDimensions@@QAEXAAH0@Z
?Send@CWndObj@@UAGHIIJ@Z
?SetActive@SimpleDialogBase@@UAEXAAH@Z
?SetActive@WizardDialogPost@@UAEXAAH@Z
?SetActive@WizardDialogPre@@UAEXAAH@Z
?SetActive@WizardHandler@@UAEXAAH@Z
?SetActive@WizardRoot@@UAEXXZ
?SetActiveAppWnd@AppWindow@@QAGXPAUHWND__@@@Z
?SetAllowMirror@CAnimation@@QAEXH@Z
?SetAllowMirror@CAnimationControl@@QAGXH@Z
?SetAllowMirror@CDIB@@QAEXH@Z
?SetAppHWnd@WizardUI@@QAEXPAUHWND__@@@Z
?SetAppWindow@WizardUI@@QAEXPAVAppWindow@@@Z
?SetAt@?$CSimpleStringT@G$0A@@ATL@@QAEXHG@Z
?SetAtIndex@?$CSimpleArray@PAGV?$CSimpleArrayEqualHelper@PAG@ATL@@@ATL@@QAEHHABQAG@Z
?SetAtIndex@?$CSimpleArray@PAUIResourceModuleEvent@@V?$CSimpleArrayEqualHelper@PAUIResourceModuleEvent@@@ATL@@@ATL@@QAEHHABQAUIResourceModuleEvent@@@Z
?SetAtIndex@?$CSimpleArray@PAUKEYBOARD@@V?$CSimpleArrayEqualHelper@PAUKEYBOARD@@@ATL@@@ATL@@QAEHHABQAUKEYBOARD@@@Z
?SetAtIndex@?$CSimpleArray@PAULANGUAGE@@V?$CSimpleArrayEqualHelper@PAULANGUAGE@@@ATL@@@ATL@@QAEHHABQAULANGUAGE@@@Z
?SetAtIndex@?$CSimpleArray@PAULOCALE@@V?$CSimpleArrayEqualHelper@PAULOCALE@@@ATL@@@ATL@@QAEHHABQAULOCALE@@@Z
?SetBackGroundColor@CRichEditControl@@QAGXK@Z
?SetBackgroundHDC@CCustomButtonEx@@QAEXPAUHDC__@@@Z
?SetCancelNoShow@WizardUI@@QAEXH@Z
?SetCanceled@WizardUI@@QAEXH@Z
?SetColor@CScreenText@@QAEHK@Z
?SetCurrentPage@PageContainer@@QAGXH@Z
?SetCursorState@CCursor@@QAEXI@Z
?SetCursorStateForButton@CCursor@@QAEXI@Z
?SetCursorWait@CCursor@@QAEXXZ
?SetData@WizardPage@@QAGXPAX@Z
?SetFirstPage@Win32Navigator@@UAGXPAVWizardPage@@@Z
?SetFont@CScreenText@@QAEHPAUHFONT__@@@Z
?SetFontSize@PageContainer@@QAGXH@Z
?SetFontSize@WizardUI@@QAEXI@Z
?SetGraphic@CCustomGraphicEx@@QAGHPAVCDrawItem@@@Z
?SetHWnd@WizardPage@@QAGXPAUHWND__@@@Z
?SetHdcDest@CDrawItem@@QAEXPAUHDC__@@@Z
?SetHwndDest@CDrawItem@@QAEXPAUHWND__@@@Z
?SetIndex@WizardNode@@QAGXI@Z
?SetLanguageString@WizardUI@@AAEJPAPAGPAG@Z
?SetLength@?$CSimpleStringT@G$0A@@ATL@@AAEXH@Z
?SetManager@?$CSimpleStringT@G$0A@@ATL@@QAEXPAUIAtlStringMgr@2@@Z
?SetMaxCount@WizardEx@@QAGXI@Z
?SetMdi@CWndObj@@UAGXPAUIWndObj@@@Z
?SetNavHWnd@WizardUI@@QAEXPAUHWND__@@@Z
?SetPageIndex@WizardNode@@QAGXI@Z
?SetPageList@WizardEx@@QAGXPAPAVWizardNode@@@Z
?SetPageListItem@WizardEx@@QAGXHPAVWizardNode@@@Z
?SetParent@WizardNode@@QAGXPAVWizardEx@@@Z
?SetPosition@CDrawItem@@QAEXKK@Z
?SetRichTextAnsi@CRichEditControl@@QAGXPBDPAK@Z
?SetScrWindow@WizardUI@@QAEXPAVScrWindow@@@Z
?SetStrategy@WizardEx@@QAGXPAVWizardStrategy@@@Z
?SetString@?$CSimpleStringT@G$0A@@ATL@@QAEXPBG@Z
?SetString@?$CSimpleStringT@G$0A@@ATL@@QAEXPBGH@Z
?SetSysString@?$CStringT@GV?$StrTraitATL@GV?$ChTraitsCRT@G@ATL@@@ATL@@@ATL@@QBEPAGPAPAG@Z
?SetText@CCtlText@@QAGXPAUHWND__@@PAUHFONT__@@KPBG@Z
?SetText@CRichEditControl@@QAGXPBG@Z
?SetText@CScreenText@@QAEHPAUHWND__@@PBG@Z
?SetTextColor@CRichEditControl@@QAGXK@Z
?SetTextMode@CRichEditControl@@QAGXI@Z
?SetTextNoFormat@CRichEditControl@@QAGXPBG@Z
?SetTextStyle@WizardRoot@@QAGHHMHHH@Z
?SetTransparentColor@CAnimation@@QAEXK@Z
?SetTransparentColor@CAnimationControl@@QAGXK@Z
?SetTransparentColor@CDIB@@QAEXK@Z
?SetType@WizardNode@@QAGXI@Z
?SetUserSelectedHideOOBELang@WizardUI@@QAEJPAG@Z
?SetUserSelectedKeyboardType@WizardUI@@QAEJPAG@Z
?SetUserSelectedLDId@WizardUI@@QAEJPAG@Z
?SetUserSelectedLocale@WizardUI@@QAEJPAG@Z
?SetUserSelectedTargetLanguage@WizardUI@@QAEJPAG@Z
?SetUserSelectedUILanguage@WizardUI@@QAEJPAG@Z
?SetWizUI@WizardNode@@QAGXPAVWizardUI@@@Z
?SetWizUI@WizardUI@@CGXPAV1@@Z
?Show@CWndObj@@UAGXK@Z
?Show@CWndObj@@UAGXXZ
?ShowError@LanguageSelectionDialogBase@@AAEHPAUHINSTANCE__@@K@Z
?ShowLanguageNeutralSelectionUI@LanguageNeutralSelectionDialogBase@@UAEHXZ
?ShowLanguageSelectionUI@LanguageSelectionDialogBase@@UAEHXZ
?ShowReadMoreWnd@@YGHPAUHINSTANCE__@@PAUHWND__@@IPBGI@Z
?ShowReadMoreWnd@@YGXPAUHINSTANCE__@@PAUHWND__@@III@Z
?ShowScreenWindow@WizardUI@@QAEXH@Z
?ShowUI@PageContainer@@QAGXPAUHWND__@@PAVWizardPage@@@Z
?ShowWindow@PageContainer@@QAGXH@Z
?ShowWindows@WizardUI@@AAEXXZ
?Size@CWndObj@@UAGXPAUtagSIZE@@@Z
?SleepMessageSafe@WizardUI@@QAEXK@Z
?SpanExcluding@?$CStringT@GV?$StrTraitATL@GV?$ChTraitsCRT@G@ATL@@@ATL@@@ATL@@QBE?AV12@PBG@Z
?SpanIncluding@?$CStringT@GV?$StrTraitATL@GV?$ChTraitsCRT@G@ATL@@@ATL@@@ATL@@QBE?AV12@PBG@Z
?Stack@WizardUI@@QAEPAVNavigationStack@@XZ
?Start@CAnimation@@QAEHXZ
?StartUI@WizardUI@@QAEHPBVProtoPageList@@@Z
?Stop@CAnimation@@QAEHXZ
?StorageWidthBytes@CDIB@@ABEKXZ
?StringLength@?$CSimpleStringT@G$0A@@ATL@@SAHPBD@Z
?StringLength@?$CSimpleStringT@G$0A@@ATL@@SAHPBG@Z
?TearDown@PageContainer@@QAGXXZ
?TestHighcontrast@CHighContrast@@QAGXH@Z
?TextFitsInWindow@@YGJPAUHWND__@@V?$CStringT@GV?$StrTraitATL@GV?$ChTraitsCRT@G@ATL@@@ATL@@@ATL@@@Z
?ThrowMemoryException@?$CSimpleStringT@G$0A@@ATL@@KAXXZ
?Tokenize@?$CStringT@GV?$StrTraitATL@GV?$ChTraitsCRT@G@ATL@@@ATL@@@ATL@@QBE?AV12@PBGAAH@Z
?Trim@?$CStringT@GV?$StrTraitATL@GV?$ChTraitsCRT@G@ATL@@@ATL@@@ATL@@QAEAAV12@G@Z
?Trim@?$CStringT@GV?$StrTraitATL@GV?$ChTraitsCRT@G@ATL@@@ATL@@@ATL@@QAEAAV12@PBG@Z
?Trim@?$CStringT@GV?$StrTraitATL@GV?$ChTraitsCRT@G@ATL@@@ATL@@@ATL@@QAEAAV12@XZ
?TrimLeft@?$CStringT@GV?$StrTraitATL@GV?$ChTraitsCRT@G@ATL@@@ATL@@@ATL@@QAEAAV12@G@Z
?TrimLeft@?$CStringT@GV?$StrTraitATL@GV?$ChTraitsCRT@G@ATL@@@ATL@@@ATL@@QAEAAV12@PBG@Z
?TrimLeft@?$CStringT@GV?$StrTraitATL@GV?$ChTraitsCRT@G@ATL@@@ATL@@@ATL@@QAEAAV12@XZ
?TrimRight@?$CStringT@GV?$StrTraitATL@GV?$ChTraitsCRT@G@ATL@@@ATL@@@ATL@@QAEAAV12@G@Z
?TrimRight@?$CStringT@GV?$StrTraitATL@GV?$ChTraitsCRT@G@ATL@@@ATL@@@ATL@@QAEAAV12@PBG@Z
?TrimRight@?$CStringT@GV?$StrTraitATL@GV?$ChTraitsCRT@G@ATL@@@ATL@@@ATL@@QAEAAV12@XZ
?Truncate@?$CSimpleStringT@G$0A@@ATL@@QAEXH@Z
?Uninit@CResourceModuleFactory@@QAEXXZ
?Unload@CDIB@@QAEXXZ
?UnlockBuffer@?$CSimpleStringT@G$0A@@ATL@@QAEXXZ
?UnregisterObserver@CResourceModule@@QAEHPAUIResourceModuleEvent@@@Z
?Update@CWndObj@@UAGXXZ
?WMFree@CWndObj@@QAEXXZ
?WMHandler@CWndObj@@QAEJIIJ@Z
?WMInit@CWndObj@@QAEXPAUHWND__@@@Z
?WaitForMultipleObjectsMessageSafe@WizardUI@@QAEKKPBQAXHK@Z
?WaitForMultipleObjectsMessageSafeEx@WizardUI@@QAEKKPBQAXHKH@Z
?WaitForSingleObjectMessageSafe@WizardUI@@QAEKPAXK@Z
?WaitForSingleObjectMessageSafeEx@WizardUI@@QAEKPAXKH@Z
?WaitForUIEnd@WizardUI@@QAEHXZ
?WindowProc@CAttachDataDlg@@SGJPAUHWND__@@IIJ@Z
?WindowProc@CGenericNavWindow@@SGJPAUHWND__@@IIJ@Z
?WizardThreadProc@WizardUI@@CGKPAX@Z
?add_WexStyle@CWndObj@@UAGXK@Z
?add_WndStyle@CWndObj@@UAGXK@Z
?bLangUiShown@LanguageSelectionDialogBase@@0HA
?bWeAllocatedInstance@Navigator@@0HA
?clr_WexStyle@CWndObj@@UAGXK@Z
?clr_WndStyle@CWndObj@@UAGXK@Z
?getInstance@Navigator@@SGPAUINavigator@@XZ
?getInstance@Win32Navigator@@SGPAV1@XZ
?get_Alpha@CWndObj@@UAGKXZ
?get_BackColor@CWndObj@@UAGKXZ
?get_Class@CWndObj@@UAGPBGXZ
?get_ClsStyle@CWndObj@@UAGKXZ
?get_Cursor@CWndObj@@UAGPAUHICON__@@XZ
?get_Icon@CWndObj@@UAGPAUHICON__@@XZ
?get_Instance@CWndObj@@UAGPAUHINSTANCE__@@XZ
?get_Menu@CWndObj@@UAGPAUHMENU__@@XZ
?get_Parent@CWndObj@@UAGPAUHWND__@@XZ
?get_Position@CWndObj@@UAGPAUtagPOINT@@XZ
?get_Size@CWndObj@@UAGPAUtagSIZE@@XZ
?get_TextColor@CWndObj@@UAGKXZ
?get_Title@CWndObj@@UAGPBGXZ
?get_WexStyle@CWndObj@@UAGKXZ
?get_WndID@CWndObj@@UAGKXZ
?get_WndStyle@CWndObj@@UAGKXZ
?get_hWnd@CWndObj@@UAGPAUHWND__@@XZ
?instance@Navigator@@0PAUINavigator@@A
?m_CurrentVariation@VariationWizStrategy@@1HA
?m_CurrentVariation@WizardVariation@@0HA
?m_hcInstance@CHighContrast@@0PAV1@A
?m_instance@Win32Navigator@@0PAV1@A
?s_OldLangNeutralLVProc@LanguageNeutralSelectionDialogBase@@0P6GJPAUHWND__@@IIJ@ZA
?s_hbmpScreenBackgroundOld@WizardUI@@0PAUHBITMAP__@@A
?s_hdcScreenBackground@WizardUI@@0PAUHDC__@@A
?s_lInitialized@CCursor@@0JA
?s_pCursor@CCursor@@0PAV1@A
?s_pWizardUI@WizardUI@@0PAV1@A
?s_szUiLanguage@CResourceModule@@0PAGA
?setInstance@Navigator@@SGXPAUINavigator@@@Z
?set_Alpha@CWndObj@@UAGXK@Z
?set_BackColor@CWndObj@@UAGXK@Z
?set_Class@CWndObj@@UAGXPBG@Z
?set_ClsStyle@CWndObj@@UAGXK@Z
?set_Cursor@CWndObj@@UAGXPAUHICON__@@@Z
?set_Icon@CWndObj@@UAGXPAUHICON__@@@Z
?set_Instance@CWndObj@@UAGXPAUHINSTANCE__@@@Z
?set_Menu@CWndObj@@UAGXPAUHMENU__@@@Z
?set_Parent@CWndObj@@UAGXPAUHWND__@@@Z
?set_Position@CWndObj@@UAGXPAUtagPOINT@@@Z
?set_Size@CWndObj@@UAGXPAUtagSIZE@@@Z
?set_Template@CWndObj@@UAGXK@Z
?set_TextColor@CWndObj@@UAGXK@Z
?set_Title@CWndObj@@UAGXPBG@Z
?set_Type@CWndObj@@UAGXK@Z
?set_WexStyle@CWndObj@@UAGXK@Z
?set_WndID@CWndObj@@UAGXK@Z
?set_WndStyle@CWndObj@@UAGXK@Z
?v_Chk@CAnimationControl@@AAEHK@Z
?v_Chk@CCtlText@@AAEHK@Z
?v_Chk@CWndObj@@AAEHK@Z
?v_Chk@NavigationStack@@AAEHK@Z
?v_Chk@PageContainer@@AAEHK@Z
?v_ChkStack@NavigationStack@@AAEHXZ
?v_Clr@CAnimationControl@@AAEXK@Z
?v_Clr@CCtlText@@AAEXK@Z
?v_Clr@CWndObj@@AAEXK@Z
?v_Clr@NavigationStack@@AAEXK@Z
?v_Clr@PageContainer@@AAEXK@Z
?v_ClrProps@CWndObj@@AAEXXZ
?v_CreatePage@PageContainer@@AAEXHH@Z
?v_DefWndProc@CWndObj@@AAEJIIJ@Z
?v_DestroyAllCachedPages@PageContainer@@AAEXXZ
?v_DlgCreate@CWndObj@@AAEHXZ
?v_DoPageChange@Win32Navigator@@AAEXW4Direction@@PAVWizardPage@@@Z
?v_GetHCBkColor@CHighContrast@@AAEKXZ
?v_InitSurface@AppWindow@@AAEXI@Z
?v_InitSurface@ScrWindow@@AAEXXZ
?v_IsRtf@CRichEditControl@@AAEHXZ
?v_IsValid@PIDStringView@@AAEHG@Z
?v_LoadLibrary@CResourceModule@@AAEPAUHINSTANCE__@@PBG0@Z
?v_MakePidString@PIDStringView@@AAEHXZ
?v_MakeValidString@PIDStringView@@AAE?AV?$CStringT@GV?$StrTraitATL@GV?$ChTraitsCRT@G@ATL@@@ATL@@@ATL@@PBG@Z
?v_NotifyObservers@CResourceModule@@AAEXXZ
?v_Register@CWndObj@@AAEHXZ
?v_ReleaseResource@CResourceModule@@AAEXPAUHINSTANCE__@@@Z
?v_Set@CAnimationControl@@AAEXK@Z
?v_Set@CCtlText@@AAEXK@Z
?v_Set@CWndObj@@AAEXK@Z
?v_Set@NavigationStack@@AAEXK@Z
?v_Set@PageContainer@@AAEXK@Z
?v_SetCurrentPageInternal@PageContainer@@AAEXHH@Z
?v_SetWindowTitle@AppWindow@@AAEXXZ
?v_SetWindowTitle@ScrWindow@@AAEXXZ
?v_Unload@CDrawBackground@@AAEXXZ
?v_Unregister@CWndObj@@AAEHXZ
?v_WndCreate@CWndObj@@AAEHXZ
CenterRelativeToWindow
CreateMirroredIcon
CreateModifiedFont
FormatVarMessage
GetHwndFont
GetHwndLogFont
LoadHtmlResource
MoveControl
MyDynamicSetWindowText
MySetWindowText
PaintWindowRegion
SPWE_CloseCurrentMessageBox
SPWE_MessageBox
SetControlFonts
SetDlgItemTextFromResID
ShowMigrationReport
ShowReadMoreWndHtml
ShowReadMoreWndHtmlFromResource
SpwLoadBitmap
StretchControlToWindow
dlgProc
utlGetCtlRect
wndProc
