LIBRARY vcamp110.dll

EXPORTS
??0_Event@details@Concurrency@@QAE@ABV012@@Z
??0_Event@details@Concurrency@@QAE@XZ
??0accelerator@Concurrency@@AAE@V?$_Reference_counted_obj_ptr@V_Accelerator_impl@details@Concurrency@@@details@1@@Z
??0accelerator@Concurrency@@QAE@ABV01@@Z
??0accelerator@Concurrency@@QAE@XZ
??0accelerator_view@Concurrency@@AAE@V?$_Reference_counted_obj_ptr@V_Accelerator_view_impl@details@Concurrency@@@details@1@@Z
??0accelerator_view@Concurrency@@QAE@ABV01@@Z
??0accelerator_view_removed@Concurrency@@QAE@J@Z
??0accelerator_view_removed@Concurrency@@QAE@PBDJ@Z
??0invalid_compute_domain@Concurrency@@QAE@PBD@Z
??0invalid_compute_domain@Concurrency@@QAE@XZ
??0out_of_memory@Concurrency@@QAE@PBD@Z
??0out_of_memory@Concurrency@@QAE@XZ
??0runtime_exception@Concurrency@@QAE@ABV01@@Z
??0runtime_exception@Concurrency@@QAE@J@Z
??0runtime_exception@Concurrency@@QAE@PBDJ@Z
??0unsupported_feature@Concurrency@@QAE@PBD@Z
??0unsupported_feature@Concurrency@@QAE@XZ
??1_Amp_runtime_trace@details@Concurrency@@QAE@XZ
??1_Event@details@Concurrency@@QAE@XZ
??1accelerator@Concurrency@@QAE@XZ
??1accelerator_view@Concurrency@@QAE@XZ
??1runtime_exception@Concurrency@@UAE@XZ
??4_Event@details@Concurrency@@QAEAAV012@ABV012@@Z
??4accelerator@Concurrency@@QAEAAV01@ABV01@@Z
??4accelerator_view@Concurrency@@QAEAAV01@ABV01@@Z
??4runtime_exception@Concurrency@@QAEAAV01@ABV01@@Z
??8_Event@details@Concurrency@@QBE_NABV012@@Z
??8accelerator@Concurrency@@QBE_NABV01@@Z
??8accelerator_view@Concurrency@@QBE_NABV01@@Z
??9_Event@details@Concurrency@@QBE_NABV012@@Z
??9accelerator@Concurrency@@QBE_NABV01@@Z
??9accelerator_view@Concurrency@@QBE_NABV01@@Z
?_Add_continuation@_Event@details@Concurrency@@QAE?AV123@ABV?$function@$$A6A?AV_Event@details@Concurrency@@XZ@std@@@Z
?_Add_event@_Event@details@Concurrency@@QAE?AV123@V123@@Z
?_Copy_to_async@_Buffer@details@Concurrency@@QAE?AV_Event@23@PAV123@III@Z
?_Copy_to_async@_Buffer@details@Concurrency@@QAE?AV_Event@23@PAV123@V?$_Reference_counted_obj_ptr@V_View_shape@details@Concurrency@@@23@1@Z
?_Copy_to_async@_Texture@details@Concurrency@@QAE?AV_Event@23@PAV123@@Z
?_Create_buffer@_Buffer@details@Concurrency@@SAPAV123@PAXVaccelerator_view@3@II@Z
?_Create_buffer@_Buffer@details@Concurrency@@SAPAV123@Vaccelerator_view@3@II_N@Z
?_Create_stage_buffer@_Buffer@details@Concurrency@@SAPAV123@Vaccelerator_view@3@0II_N@Z
?_Create_stage_texture@_Texture@details@Concurrency@@SAPAV123@Vaccelerator_view@3@0IIIIII_N@Z
?_Create_texture@_Texture@details@Concurrency@@SAPAV123@IW4_Short_vector_base_type_id@23@PAUIUnknown@@Vaccelerator_view@3@@Z
?_Create_texture@_Texture@details@Concurrency@@SAPAV123@Vaccelerator_view@3@IIIIIW4_Short_vector_base_type_id@23@II_N@Z
?_Create_ubiquitous_buffer@_Ubiquitous_buffer@details@Concurrency@@SAPAV123@V?$_Reference_counted_obj_ptr@V_Buffer@details@Concurrency@@@23@@Z
?_Create_view_shape@_View_shape@details@Concurrency@@SAPAV123@IIPBI00PB_N@Z
?_Discard@_Ubiquitous_buffer@details@Concurrency@@QAEXPAU_Buffer_descriptor@23@@Z
?_Get@_Event@details@Concurrency@@QAEXXZ
?_Get_CPU_access@_Buffer_descriptor@details@Concurrency@@QBEXW4_Access_mode@@@Z
?_Get_D3D_buffer@_D3D_interop@details@Concurrency@@SAPAUIUnknown@@PAV_Buffer@23@@Z
?_Get_D3D_texture@_D3D_interop@details@Concurrency@@SAPAUIUnknown@@PAV_Texture@23@@Z
?_Get_accelerator_view@_Buffer@details@Concurrency@@QBE?AVaccelerator_view@3@XZ
?_Get_access_async@_Ubiquitous_buffer@details@Concurrency@@AAE?AV_Event@23@PAU_Buffer_descriptor@23@Vaccelerator_view@3@W4_Access_mode@@AAV?$_Reference_counted_obj_ptr@V_Buffer@details@Concurrency@@@23@PA_K@Z
?_Get_access_async@_Ubiquitous_buffer@details@Concurrency@@QAE?AV_Event@23@PAU_Buffer_descriptor@23@V?$_Reference_counted_obj_ptr@V_Accelerator_view_impl@details@Concurrency@@@23@W4_Access_mode@@AAV?$_Reference_counted_obj_ptr@V_Buffer@details@Concurrency@@@23@PA_K@Z
?_Get_access_on_accelerator_view@_Buffer@details@Concurrency@@QBE?AVaccelerator_view@3@XZ
?_Get_amp_trace@details@Concurrency@@YAPAV_Amp_runtime_trace@12@XZ
?_Get_description@accelerator@Concurrency@@ABEPB_WXZ
?_Get_device_path@accelerator@Concurrency@@ABEPB_WXZ
?_Get_devices@details@Concurrency@@YAPAV?$_Reference_counted_obj_ptr@V_Accelerator_impl@details@Concurrency@@@12@XZ
?_Get_master_accelerator_view@_Ubiquitous_buffer@details@Concurrency@@QBE?AVaccelerator_view@3@XZ
?_Get_master_buffer@_Ubiquitous_buffer@details@Concurrency@@QBE?AV?$_Reference_counted_obj_ptr@V_Buffer@details@Concurrency@@@23@XZ
?_Get_num_devices@details@Concurrency@@YAIXZ
?_Get_temp_staging_buffer@_Buffer@details@Concurrency@@SAIVaccelerator_view@3@IIPAPAV123@@Z
?_Get_view_shape@_Ubiquitous_buffer@details@Concurrency@@QAE?AV?$_Reference_counted_obj_ptr@V_View_shape@details@Concurrency@@@23@PAU_Buffer_descriptor@23@@Z
?_Init@accelerator@Concurrency@@AAEXPB_W@Z
?_Is_D3D_accelerator_view@details@Concurrency@@YA_NABVaccelerator_view@2@@Z
?_Is_empty@_Event@details@Concurrency@@QBE_NXZ
?_Is_finished@_Event@details@Concurrency@@QAE_NXZ
?_Is_finished_nothrow@_Event@details@Concurrency@@QAE_NXZ
?_Launch_array_view_synchronize_event_helper@_Amp_runtime_trace@details@Concurrency@@QAEKABU_Buffer_descriptor@23@@Z
?_Launch_async_copy_event_helper@_Amp_runtime_trace@details@Concurrency@@QAEK$$TABU_Buffer_descriptor@23@_K@Z
?_Launch_async_copy_event_helper@_Amp_runtime_trace@details@Concurrency@@QAEK$$TABU_Texture_descriptor@23@_K@Z
?_Launch_async_copy_event_helper@_Amp_runtime_trace@details@Concurrency@@QAEKABU_Buffer_descriptor@23@$$T_K@Z
?_Launch_async_copy_event_helper@_Amp_runtime_trace@details@Concurrency@@QAEKABU_Buffer_descriptor@23@0_K@Z
?_Launch_async_copy_event_helper@_Amp_runtime_trace@details@Concurrency@@QAEKABU_Texture_descriptor@23@$$T_K@Z
?_Map_stage_buffer@_Buffer@details@Concurrency@@QAEPAXW4_Access_mode@@_N@Z
?_Recursive_array_copy@details@Concurrency@@YAJABU_Array_copy_desc@12@IV?$function@$$A6AJABU_Array_copy_desc@details@Concurrency@@@Z@std@@@Z
?_Register_async_event@details@Concurrency@@YAXABV_Event@12@ABV?$shared_future@X@std@@@Z
?_Register_view@_Buffer@details@Concurrency@@QAEXPAU_Buffer_descriptor@23@@Z
?_Register_view@_Ubiquitous_buffer@details@Concurrency@@QAEXPAU_Buffer_descriptor@23@Vaccelerator_view@3@V?$_Reference_counted_obj_ptr@V_View_shape@details@Concurrency@@@23@@Z
?_Register_view_copy@_Ubiquitous_buffer@details@Concurrency@@QAEXPAU_Buffer_descriptor@23@0@Z
?_Release@_Buffer@details@Concurrency@@UAEXXZ
?_Release@_Ubiquitous_buffer@details@Concurrency@@UAEXXZ
?_Release@_View_shape@details@Concurrency@@UAEXXZ
?_Select_default_accelerator@details@Concurrency@@YA?AVaccelerator@2@XZ
?_Set_default_accelerator@details@Concurrency@@YA_NV?$_Reference_counted_obj_ptr@V_Accelerator_impl@details@Concurrency@@@12@@Z
?_Start_array_view_synchronize_event_helper@_Amp_runtime_trace@details@Concurrency@@QAEKABU_Buffer_descriptor@23@@Z
?_Start_async_op_wait_event@_Amp_runtime_trace@details@Concurrency@@AAEKK@Z
?_Start_copy_event_helper@_Amp_runtime_trace@details@Concurrency@@QAEK$$TABU_Buffer_descriptor@23@_K@Z
?_Start_copy_event_helper@_Amp_runtime_trace@details@Concurrency@@QAEK$$TABU_Texture_descriptor@23@_K@Z
?_Start_copy_event_helper@_Amp_runtime_trace@details@Concurrency@@QAEKABU_Buffer_descriptor@23@$$T_K@Z
?_Start_copy_event_helper@_Amp_runtime_trace@details@Concurrency@@QAEKABU_Buffer_descriptor@23@0_K@Z
?_Start_copy_event_helper@_Amp_runtime_trace@details@Concurrency@@QAEKABU_Texture_descriptor@23@$$T_K@Z
?_Start_copy_event_helper@_Amp_runtime_trace@details@Concurrency@@QAEKABU_Texture_descriptor@23@0_K@Z
?_Start_parallel_for_each_event_helper@_Amp_runtime_trace@details@Concurrency@@QAEKPAU_DPC_call_handle@23@@Z
?_Unmap_stage_buffer@_Buffer@details@Concurrency@@QAEXXZ
?_Unregister_view@_Buffer@details@Concurrency@@QAEXPAU_Buffer_descriptor@23@@Z
?_Unregister_view@_Ubiquitous_buffer@details@Concurrency@@QAEXPAU_Buffer_descriptor@23@@Z
?_Write_end_event@_Amp_runtime_trace@details@Concurrency@@QAEXK@Z
?cpu_accelerator@accelerator@Concurrency@@2QB_WB
?create_accelerator_view@direct3d@Concurrency@@YA?AVaccelerator_view@2@PAUIUnknown@@W4queuing_mode@2@@Z
?create_marker@accelerator_view@Concurrency@@QAE?AVcompletion_future@2@XZ
?create_view@accelerator@Concurrency@@QAE?AVaccelerator_view@2@W4queuing_mode@2@@Z
?default_accelerator@accelerator@Concurrency@@2QB_WB
?direct3d_ref@accelerator@Concurrency@@2QB_WB
?direct3d_warp@accelerator@Concurrency@@2QB_WB
?flush@accelerator_view@Concurrency@@QAEXXZ
?get_accelerator@accelerator_view@Concurrency@@QBE?AVaccelerator@2@XZ
?get_dedicated_memory@accelerator@Concurrency@@QBEIXZ
?get_default_view@accelerator@Concurrency@@QBE?AVaccelerator_view@2@XZ
?get_device@direct3d@Concurrency@@YAPAUIUnknown@@ABVaccelerator_view@2@@Z
?get_error_code@runtime_exception@Concurrency@@QBEJXZ
?get_has_display@accelerator@Concurrency@@QBE_NXZ
?get_is_debug@accelerator@Concurrency@@QBE_NXZ
?get_is_debug@accelerator_view@Concurrency@@QBE_NXZ
?get_is_emulated@accelerator@Concurrency@@QBE_NXZ
?get_queuing_mode@accelerator_view@Concurrency@@QBE?AW4queuing_mode@2@XZ
?get_supports_double_precision@accelerator@Concurrency@@QBE_NXZ
?get_supports_limited_double_precision@accelerator@Concurrency@@QBE_NXZ
?get_version@accelerator@Concurrency@@QBEIXZ
?get_version@accelerator_view@Concurrency@@QBEIXZ
?get_view_removed_reason@accelerator_view_removed@Concurrency@@QBEJXZ
?wait@accelerator_view@Concurrency@@QAEXXZ
__dpc_create_call_handle
__dpc_dispatch_kernel
__dpc_release_call_handle
__dpc_set_const_buffer_info
__dpc_set_device_buffer_info
__dpc_set_kernel_dispatch_info
__dpc_set_kernel_shader_info
