LIBRARY VSD3DWARPDebug.dll

EXPORTS
?ReadThreadRegisterWithSize@WarpDebugInternal@@YGJPAXIW4VSD3D_REGISTER_SET@@I_KPAEI@Z
?VSD3DAttach2@WarpDebugInternal@@YGJKPAXPAPAX@Z
?VSD3DAttach@WarpDebugInternal@@YGJKUVSD3D_CONFIG_INFO@@PAPAX@Z
?VSD3DBreak@WarpDebugInternal@@YGJPAX@Z
?VSD3DCloseActiveGroup@WarpDebugInternal@@YGJPAX@Z
?VSD3DConfig@WarpDebugInternal@@YGJPAXKPAUVSD3D_MONITORFUNCS@@PAUVSD3D_CONFIG_INFO2@@@Z
?VSD3DContinueDebugEvent@WarpDebugInternal@@YGJPAXPAUVSD3D_SINGLESTEP_INFO@@@Z
?VSD3DDeleteShaderBreakPoint@WarpDebugInternal@@YGJPAX@Z
?VSD3DDetach@WarpDebugInternal@@YGJPAXH@Z
?VSD3DEnableShaderBreakPoint@WarpDebugInternal@@YGJPAX_N@Z
?VSD3DEnableWarning@WarpDebugInternal@@YGJPAXW4VSD3DDebugWarningType@@H@Z
?VSD3DGatherGroupSharedRegister@WarpDebugInternal@@YGJPAXIPA_KIIPAEI@Z
?VSD3DGatherShaderBufferMemory@WarpDebugInternal@@YGJPAXW4VSD3D_REGISTER_SET@@IPA_KIIPAEI@Z
?VSD3DGatherThreadRegister@WarpDebugInternal@@YGJPAXUVSD3D_SHADER_DIMENSION@@W4VSD3D_REGISTER_SET@@IPA_KIIPAEI@Z
?VSD3DGetActiveGroups@WarpDebugInternal@@YGJPAXHPAUVSD3D_GROUP_STATISTICS@@PAUVSD3D_SHADER_DIMENSION@@IPAI@Z
?VSD3DGetBreakPointInfo@WarpDebugInternal@@YGJPAXPAUVSD3D_BREAKPOINT_INFO@@@Z
?VSD3DGetConfigInfo@WarpDebugInternal@@YGJPAUVSD3D_CONFIG_INFO@@@Z
?VSD3DGetDebugEvent@WarpDebugInternal@@YGJPAUVSD3D_DEBUG_EVENT@@PAX@Z
?VSD3DGetDeviceInfo@WarpDebugInternal@@YGJPAXPAUVSD3D_DEVICE_INFO@@@Z
?VSD3DGetDispatchDictionary@WarpDebugInternal@@YGJPAXPAUVSD3D_NAME_VALUE_PAIR@@IPAI@Z
?VSD3DGetRegisterInfo@WarpDebugInternal@@YGJPAXPAUVSD3D_REGISTER_INFO@@I@Z
?VSD3DGetResourceInformation@WarpDebugInternal@@YGJPAXW4VSD3D_REGISTER_SET@@IPAUD3D11_BOX@@PAW4DXGI_FORMAT@@@Z
?VSD3DGetShaderBreakPoints@WarpDebugInternal@@YGJPAXPAPAXIPAI@Z
?VSD3DGetShaderDebugData@WarpDebugInternal@@YGJPAXPAE_KPA_K@Z
?VSD3DGetShaderDispatchInfo@WarpDebugInternal@@YGJPAXPAUVSD3D_SHADER_DISPATCH_INFO@@@Z
?VSD3DGetShaderInfo@WarpDebugInternal@@YGJPAXPAUVSD3D_SHADER_INFO@@@Z
?VSD3DGetShaderInstructions@WarpDebugInternal@@YGJPAXPAE_KPA_K@Z
?VSD3DGetSupportedDeviceIds@WarpDebugInternal@@YGJPAU_LUID@@IPAI@Z
?VSD3DGetWarningEnabled@WarpDebugInternal@@YGJPAXW4VSD3DDebugWarningType@@PAH@Z
?VSD3DGetWarningInfo@WarpDebugInternal@@YGJPAXPAUVSD3D_WARNING_INFO@@IPAI@Z
?VSD3DGroupGetThreadsInfo@WarpDebugInternal@@YGJPAXPAUVSD3D_THREAD_INFO@@IPAI@Z
?VSD3DGroupReadThreadRegister@WarpDebugInternal@@YGJPAXW4VSD3D_REGISTER_SET@@I_KIPAEI@Z
?VSD3DOpenActiveGroup@WarpDebugInternal@@YGJPAXUVSD3D_SHADER_DIMENSION@@PAPAX@Z
?VSD3DReadGroupSharedRegister@WarpDebugInternal@@YGJPAXI_KPAEI@Z
?VSD3DReadShaderBufferMemory@WarpDebugInternal@@YGJPAXW4VSD3D_REGISTER_SET@@I_KPAEI@Z
?VSD3DReadThreadRegister@WarpDebugInternal@@YGJPAXUVSD3D_SHADER_DIMENSION@@W4VSD3D_REGISTER_SET@@I_KPAEI@Z
?VSD3DReleaseDebugString@WarpDebugInternal@@YGJPAG@Z
?VSD3DSetShaderBreakPoint@WarpDebugInternal@@YGJPAXUVSD3D_BREAKPOINT_INFO@@PAPAX@Z
?VSD3DSetThreadsFrozen@WarpDebugInternal@@YGJPAXIH@Z
?VSD3DShaderDispatchGetThreadsInfo@WarpDebugInternal@@YGJPAXPAUVSD3D_GROUP_THREADS_INFO@@IPAI@Z
?VSD3DWaitForDebugEvent@WarpDebugInternal@@YGJPAUVSD3D_DEBUG_EVENT@@PAPAXK@Z
?VSD3DWriteGroupSharedRegister@WarpDebugInternal@@YGJPAXI_KPAEI@Z
?VSD3DWriteShaderBufferMemory@WarpDebugInternal@@YGJPAXW4VSD3D_REGISTER_SET@@I_KPAEI@Z
?VSD3DWriteThreadRegister@WarpDebugInternal@@YGJPAXUVSD3D_SHADER_DIMENSION@@W4VSD3D_REGISTER_SET@@I_KPAEI@Z
InitializeDebugging
