LIBRARY vssapi.dll

EXPORTS
??0CVssJetWriter@@QAE@XZ
??0CVssWriter@@QAE@XZ
??1CVssJetWriter@@UAE@XZ
??1CVssWriter@@UAE@XZ
?AreComponentsSelected@CVssJetWriter@@IBG_NXZ
?AreComponentsSelected@CVssWriter@@IBG_NXZ
?CreateVssBackupComponents@@YGJPAPAVIVssBackupComponents@@@Z
?CreateVssExamineWriterMetadata@@YGJPAGPAPAVIVssExamineWriterMetadata@@@Z
?GetBackupType@CVssJetWriter@@IBG?AW4_VSS_BACKUP_TYPE@@XZ
?GetBackupType@CVssWriter@@IBG?AW4_VSS_BACKUP_TYPE@@XZ
?GetContext@CVssJetWriter@@IBGJXZ
?GetContext@CVssWriter@@IBGJXZ
?GetCurrentLevel@CVssJetWriter@@IBG?AW4_VSS_APPLICATION_LEVEL@@XZ
?GetCurrentLevel@CVssWriter@@IBG?AW4_VSS_APPLICATION_LEVEL@@XZ
?GetCurrentSnapshotSetId@CVssJetWriter@@IBG?AU_GUID@@XZ
?GetCurrentSnapshotSetId@CVssWriter@@IBG?AU_GUID@@XZ
?GetCurrentVolumeArray@CVssJetWriter@@IBGPAPBGXZ
?GetCurrentVolumeArray@CVssWriter@@IBGPAPBGXZ
?GetCurrentVolumeCount@CVssJetWriter@@IBGIXZ
?GetCurrentVolumeCount@CVssWriter@@IBGIXZ
?GetRestoreType@CVssJetWriter@@IBG?AW4_VSS_RESTORE_TYPE@@XZ
?GetRestoreType@CVssWriter@@IBG?AW4_VSS_RESTORE_TYPE@@XZ
?GetSnapshotDeviceName@CVssJetWriter@@IBGJPBGPAPBG@Z
?GetSnapshotDeviceName@CVssWriter@@IBGJPBGPAPBG@Z
?Initialize@CVssJetWriter@@QAGJU_GUID@@PBG_N211K@Z
?Initialize@CVssWriter@@QAGJU_GUID@@PBGW4VSS_USAGE_TYPE@@W4VSS_SOURCE_TYPE@@W4_VSS_APPLICATION_LEVEL@@KW4VSS_ALTERNATE_WRITER_STATE@@_N1@Z
?InstallAlternateWriter@CVssWriter@@QAGJU_GUID@@0@Z
?IsBootableSystemStateBackedUp@CVssJetWriter@@IBG_NXZ
?IsBootableSystemStateBackedUp@CVssWriter@@IBG_NXZ
?IsPartialFileSupportEnabled@CVssJetWriter@@IBG_NXZ
?IsPartialFileSupportEnabled@CVssWriter@@IBG_NXZ
?IsPathAffected@CVssJetWriter@@IBG_NPBG@Z
?IsPathAffected@CVssWriter@@IBG_NPBG@Z
?OnAbortBegin@CVssJetWriter@@UAGXXZ
?OnAbortEnd@CVssJetWriter@@UAGXXZ
?OnBackOffIOOnVolume@CVssWriter@@UAG_NPAGU_GUID@@1@Z
?OnBackupComplete@CVssWriter@@UAG_NPAVIVssWriterComponents@@@Z
?OnBackupCompleteBegin@CVssJetWriter@@UAG_NPAVIVssWriterComponents@@@Z
?OnBackupCompleteEnd@CVssJetWriter@@UAG_NPAVIVssWriterComponents@@_N@Z
?OnBackupShutdown@CVssWriter@@UAG_NU_GUID@@@Z
?OnContinueIOOnVolume@CVssWriter@@UAG_NPAGU_GUID@@1@Z
?OnFreezeBegin@CVssJetWriter@@UAG_NXZ
?OnFreezeEnd@CVssJetWriter@@UAG_N_N@Z
?OnIdentify@CVssJetWriter@@UAG_NPAVIVssCreateWriterMetadata@@@Z
?OnIdentify@CVssWriter@@UAG_NPAVIVssCreateWriterMetadata@@@Z
?OnPostRestore@CVssWriter@@UAG_NPAVIVssWriterComponents@@@Z
?OnPostRestoreBegin@CVssJetWriter@@UAG_NPAVIVssWriterComponents@@@Z
?OnPostRestoreEnd@CVssJetWriter@@UAG_NPAVIVssWriterComponents@@_N@Z
?OnPostSnapshot@CVssJetWriter@@UAG_NPAVIVssWriterComponents@@@Z
?OnPostSnapshot@CVssWriter@@UAG_NPAVIVssWriterComponents@@@Z
?OnPreRestore@CVssWriter@@UAG_NPAVIVssWriterComponents@@@Z
?OnPreRestoreBegin@CVssJetWriter@@UAG_NPAVIVssWriterComponents@@@Z
?OnPreRestoreEnd@CVssJetWriter@@UAG_NPAVIVssWriterComponents@@_N@Z
?OnPrepareBackup@CVssWriter@@UAG_NPAVIVssWriterComponents@@@Z
?OnPrepareBackupBegin@CVssJetWriter@@UAG_NPAVIVssWriterComponents@@@Z
?OnPrepareBackupEnd@CVssJetWriter@@UAG_NPAVIVssWriterComponents@@_N@Z
?OnPrepareSnapshotBegin@CVssJetWriter@@UAG_NXZ
?OnPrepareSnapshotEnd@CVssJetWriter@@UAG_N_N@Z
?OnThawBegin@CVssJetWriter@@UAG_NXZ
?OnThawEnd@CVssJetWriter@@UAG_N_N@Z
?OnVSSApplicationStartup@CVssWriter@@UAG_NXZ
?OnVSSShutdown@CVssWriter@@UAG_NXZ
?SetWriterFailure@CVssJetWriter@@IAGJJ@Z
?SetWriterFailure@CVssWriter@@IAGJJ@Z
?Subscribe@CVssWriter@@QAGJK@Z
?Uninitialize@CVssJetWriter@@QAGXXZ
?Unsubscribe@CVssWriter@@QAGJXZ
CreateVssBackupComponentsInternal
CreateVssExamineWriterMetadataInternal
CreateVssExpressWriterInternal
CreateVssSnapshotSetDescription
CreateWriter
CreateWriterEx
DllCanUnloadNow
DllGetClassObject
GetProviderMgmtInterface
GetProviderMgmtInterfaceInternal
IsVolumeSnapshotted
IsVolumeSnapshottedInternal
LoadVssSnapshotSetDescription
ShouldBlockRevert
ShouldBlockRevertInternal
VssFreeSnapshotProperties
VssFreeSnapshotPropertiesInternal
