LIBRARY tquery.dll

EXPORTS
??0CDriveInfo@@QAE@PBGK@Z
??0CFullPath@@QAE@PBG@Z
??0CFullPropSpec@@QAE@ABV0@@Z
??0CMemSerStream@@QAE@PAEK@Z
??0CPidLookupTable@@QAE@XZ
??0CUnNormalizer@@QAE@XZ
??0CiStorage@@QAE@PBGKPAUICiCAdviseStatus@@KH@Z
??0XAct@@QAE@XZ
??1CMemSerStream@@UAE@XZ
??1CPhysStorage@@UAE@XZ
??1CPidLookupTable@@QAE@XZ
?CoTaskAllocator@@3VCCoTaskAllocator@@A
?ContainsDrive@CDriveInfo@@SGHPBG@Z
?GetBlob@CMemDeSerStream@@UAEXPAEK@Z
?GetByte@CMemDeSerStream@@UAEEXZ
?GetChar@CMemDeSerStream@@UAEXPADK@Z
?GetDiskSpace@CDriveInfo@@QAEXAA_J0@Z
?GetDouble@CMemDeSerStream@@UAENXZ
?GetDrive@CDriveInfo@@SGXPBGPAG@Z
?GetFloat@CMemDeSerStream@@UAEMXZ
?GetGUID@CMemDeSerStream@@UAEXAAU_GUID@@@Z
?GetLong@CMemDeSerStream@@UAEJXZ
?GetSectorSize@CDriveInfo@@QAEKXZ
?GetString@CMemDeSerStream@@UAEPADXZ
?GetULong@CMemDeSerStream@@UAEKXZ
?GetUShort@CMemDeSerStream@@UAEGXZ
?GetWChar@CMemDeSerStream@@UAEXPAGK@Z
?GetWString@CMemDeSerStream@@UAEPAGXZ
?Init@CPidLookupTable@@QAEHPAVPRcovStorageObj@@@Z
?IsSameDrive@CDriveInfo@@QAEHPBG@Z
?IsWriteProtected@CDriveInfo@@QAEHXZ
?MakePath@CFullPath@@QAEXPBG@Z
?PeekULong@CMemDeSerStream@@UAEKXZ
?PutBlob@CMemSerStream@@UAEXPBEK@Z
?PutByte@CMemSerStream@@UAEXE@Z
?PutChar@CMemSerStream@@UAEXPBDK@Z
?PutDouble@CMemSerStream@@UAEXN@Z
?PutFloat@CMemSerStream@@UAEXM@Z
?PutGUID@CMemSerStream@@UAEXABU_GUID@@@Z
?PutLong@CMemSerStream@@UAEXJ@Z
?PutString@CMemSerStream@@UAEXPBD@Z
?PutULong@CMemSerStream@@UAEXK@Z
?PutUShort@CMemSerStream@@UAEXG@Z
?PutWChar@CMemSerStream@@UAEXPBGK@Z
?PutWString@CMemSerStream@@UAEXPBG@Z
?QueryPidLookupTable@CiStorage@@QAEPAVPRcovStorageObj@@K@Z
?Read@CCiFile@@QAEXXZ
?ResetType@CAllocStorageVariant@@IAEXAAVPMemoryAllocator@@@Z
?SetLPWSTR@CStorageVariant@@QAEXPBGI@Z
?SetProperty@CFullPropSpec@@QAEHPBG@Z
?SetProperty@CFullPropSpec@@QAEXK@Z
?SkipBlob@CMemDeSerStream@@UAEXK@Z
?SkipByte@CMemDeSerStream@@UAEXXZ
?SkipChar@CMemDeSerStream@@UAEXK@Z
?SkipDouble@CMemDeSerStream@@UAEXXZ
?SkipFloat@CMemDeSerStream@@UAEXXZ
?SkipGUID@CMemDeSerStream@@UAEXXZ
?SkipLong@CMemDeSerStream@@UAEXXZ
?SkipULong@CMemDeSerStream@@UAEXXZ
?SkipUShort@CMemDeSerStream@@UAEXXZ
?SkipWChar@CMemDeSerStream@@UAEXK@Z
?UnNormalizeKey@CUnNormalizer@@QAEXABVCKeyBuf@@AAUtagPROPVARIANT@@PAGK@Z
AccessDebugTracer
AccessRetailTracer
CIState
CreatePropMapperStorage
CreatePropMapperStorage2
CreateSecurityStoreStorage
DllCanUnloadNow
DllGetClassObject
DllRegisterServer
DllUnregisterServer
ExceptInitialize
ExternPropagateEventToOpenQueries
PerfmonClose
PerfmonCollect
PerfmonIDXClose
PerfmonIDXCollect
PerfmonIDXOpen
PerfmonOpen
RetailTracerDisable
RetailTracerEnable
RetailTracerReleaseAll
UseLowFragmentationHeap
_ForceMasterMerge@16
_NtQuerySystemInformation@16
ciDelete
ciNew
ciNewNoThrow
