LIBRARY ufat.dll

EXPORTS
??0CLUSTER_CHAIN@@QAE@XZ
??0EA_HEADER@@QAE@XZ
??0EA_SET@@QAE@XZ
??0FAT_DIRENT@@QAE@XZ
??0FAT_SA@@QAE@XZ
??0FILEDIR@@QAE@XZ
??0REAL_FAT_SA@@QAE@XZ
??0ROOTDIR@@QAE@XZ
??1CLUSTER_CHAIN@@UAE@XZ
??1EA_HEADER@@UAE@XZ
??1EA_SET@@UAE@XZ
??1FAT_DIRENT@@UAE@XZ
??1FAT_SA@@UAE@XZ
??1FILEDIR@@UAE@XZ
??1REAL_FAT_SA@@UAE@XZ
??1ROOTDIR@@UAE@XZ
?AllocChain@FAT@@QAEKKPAK@Z
?FreeChain@FAT@@QAEXK@Z
?GetEa@EA_SET@@QAEPAU_EA@@KPAJPAE@Z
?Index12@FAT@@ABEKK@Z
?InitFATChkDirty@REAL_FAT_SA@@QAEEPAVLOG_IO_DP_DRIVE@@PAVMESSAGE@@@Z
?Initialize@CLUSTER_CHAIN@@QAEEPAVMEM@@PAVLOG_IO_DP_DRIVE@@PAVFAT_SA@@PBVFAT@@KK@Z
?Initialize@EA_HEADER@@QAEEPAVMEM@@PAVLOG_IO_DP_DRIVE@@PAVFAT_SA@@PBVFAT@@KK@Z
?Initialize@EA_SET@@QAEEPAVMEM@@PAVLOG_IO_DP_DRIVE@@PAVFAT_SA@@PBVFAT@@KK@Z
?Initialize@FAT_DIRENT@@QAEEPAX@Z
?Initialize@FAT_DIRENT@@QAEEPAXE@Z
?Initialize@FILEDIR@@QAEEPAVMEM@@PAVLOG_IO_DP_DRIVE@@PAVFAT_SA@@PBVFAT@@K@Z
?Initialize@REAL_FAT_SA@@UAEEPAVLOG_IO_DP_DRIVE@@PAVMESSAGE@@E@Z
?Initialize@ROOTDIR@@QAEEPAVMEM@@PAVLOG_IO_DP_DRIVE@@KJ@Z
?IsValidCreationTime@FAT_DIRENT@@QBEEXZ
?IsValidLastAccessTime@FAT_DIRENT@@QBEEXZ
?IsValidLastWriteTime@FAT_DIRENT@@QBEEXZ
?QueryAllocatedClusters@FAT@@QBEKXZ
?QueryCensusAndRelocate@FAT_SA@@QAEEPAU_CENSUS_REPORT@@PAVINTSTACK@@PAE@Z
?QueryCreationTime@FAT_DIRENT@@QBEEPAT_LARGE_INTEGER@@@Z
?QueryEaSetClusterNumber@EA_HEADER@@QBEGG@Z
?QueryFileStartingCluster@FAT_SA@@QAEKPBVWSTRING@@PAVHMEM@@PAPAVFATDIR@@PAEPAVFAT_DIRENT@@@Z
?QueryFreeSectors@REAL_FAT_SA@@QBEKXZ
?QueryLastAccessTime@FAT_DIRENT@@QBEEPAT_LARGE_INTEGER@@@Z
?QueryLastWriteTime@FAT_DIRENT@@QBEEPAT_LARGE_INTEGER@@@Z
?QueryLengthOfChain@FAT@@QBEKKPAK@Z
?QueryLongName@FATDIR@@QAEEJPAVWSTRING@@@Z
?QueryName@FAT_DIRENT@@QBEEPAVWSTRING@@@Z
?QueryNthCluster@FAT@@QBEKKK@Z
?Read@CLUSTER_CHAIN@@UAEEXZ
?Read@EA_SET@@UAEEXZ
?Read@REAL_FAT_SA@@UAEEPAVMESSAGE@@@Z
?SearchForDirEntry@FATDIR@@QAEPAXPBVWSTRING@@@Z
?Set12@FAT@@AAEXKK@Z
?Write@CLUSTER_CHAIN@@UAEEXZ
Chkdsk
ChkdskEx
Format
FormatEx
GetFilesystemInformation
Recover
