LIBRARY rtmpal.dll

EXPORTS
??0CheckedMutex@auf@@QAE@PBD_N@Z
??0Event@auf@@QAE@XZ
??0Flag@auf@@QAE@XZ
??0IPv4@rtnet@@QAE@XZ
??0IPv6@rtnet@@QAE@XZ
??0LockfreeQueue@auf@@QAE@AAVLockfreeStackPool@1@@Z
??0LockfreeStackPool@auf@@QAE@I@Z
??0Path@spl@@QAE@XZ
??0PortSpecification@rtnet@@QAE@ABU?$pair@HH@std@@@Z
??0RefCounter@auf@@QAE@XZ
??0SocketConnectOptions@rtnet@@QAE@XZ
??0SocketOptions@rtnet@@IAE@XZ
??0ThreadRef@auf@@QAE@PBDII@Z
??0UncheckedMutex@auf@@QAE@PBD_N@Z
??0XorshiftRNG@auf@@QAE@I@Z
??1CheckedMutex@auf@@QAE@XZ
??1Event@auf@@QAE@XZ
??1Flag@auf@@QAE@XZ
??1IPv4@rtnet@@QAE@XZ
??1IPv6@rtnet@@QAE@XZ
??1LockfreeQueue@auf@@QAE@XZ
??1LockfreeStackPool@auf@@QAE@XZ
??1Path@spl@@QAE@XZ
??1PortSpecification@rtnet@@QAE@XZ
??1RefCounter@auf@@QAE@XZ
??1ThreadRef@auf@@QAE@XZ
??1UncheckedMutex@auf@@QAE@XZ
??1XorshiftRNG@auf@@QAE@XZ
??AIPv4@rtnet@@QAEAAEI@Z
??AIPv6@rtnet@@QAEAAEI@Z
?address@InterfaceAddress@rtnet@@QBE?AV?$IntrusivePtr@VAddress@rtnet@@@auf@@XZ
?advance@SimpleBuffer@rtnet@@QAEXI@Z
?allocMem@LockfreePacker@auf@@SAPAXI@Z
?allocate@LockfreeStackPool@auf@@QAEPAXI@Z
?asIPv4@Address@rtnet@@QBE_NAAVIPv4@2@@Z
?asIPv6@Address@rtnet@@QBE_NAAVIPv6@2@@Z
?atomicAddI@spl@@YAHPCHH@Z
?atomicAddL@spl@@YAJPCJJ@Z
?callOperatorDelete@spl@@YAXPAX@Z
?callOperatorNew@spl@@YAPAXI@Z
?clearDelegate@StreamSocket@rtnet@@QAEXXZ
?compareExchangeI@spl@@YA_NPCHHH@Z
?compareExchangeL@spl@@YA_NPCJJJ@Z
?compareExchangePI@spl@@YA_NPCHHH@Z
?compareExchangeValI@spl@@YAHPCHHH@Z
?complete@SimpleBuffer@rtnet@@QAEXXZ
?connectTCPHostAsync@rtnet@@YA?AV?$IntrusivePtr@VAsyncOperation@auf@@@auf@@PBDHABV?$IntrusivePtr@VThreadPoolTransport@auf@@@3@ABV?$IntrusivePtr@VIStreamSocketDelegate@rtnet@@@3@PAUAsyncTag@3@ABV?$IntrusivePtr@VStreamSocketOptions@rtnet@@@3@ABV?$IntrusivePtr@VStreamSocketConnectOptions@rtnet@@@3@I@Z
?connectedCore@IStreamSocketDelegate@rtnet@@AAEXABV?$IntrusivePtr@VStreamSocket@rtnet@@@auf@@PAUAsyncTag@4@@Z
?create@PortSpecificationImpl@internal@rtnet@@SAPAV123@ABU?$pair@HH@std@@@Z
?create@PortSpecificationImpl@internal@rtnet@@SAPAV123@ABV123@@Z
?create@PortSpecificationImpl@internal@rtnet@@SAPAV123@H@Z
?create@PortSpecificationImpl@internal@rtnet@@SAPAV123@HH@Z
?create@SocketConnectOptionsImpl@internal@rtnet@@SAPAV123@ABV123@@Z
?create@SocketConnectOptionsImpl@internal@rtnet@@SAPAV123@XZ
?create@SocketOptionsImpl@internal@rtnet@@SAPAV123@ABV123@@Z
?create@SocketOptionsImpl@internal@rtnet@@SAPAV123@XZ
?createStrand@auf@@YA?AV?$IntrusivePtr@VThreadPoolTransport@auf@@@1@W4ThreadPoolPriority@spl@@@Z
?createStrandWithTransport@auf@@YA?AV?$IntrusivePtr@VThreadPoolTransport@auf@@@1@ABV21@@Z
?createTimerWithTransport@auf@@YA?AV?$IntrusivePtr@VTimer@auf@@@1@ABV?$IntrusivePtr@VThreadPoolTransport@auf@@@1@V?$duration@_JU?$ratio@$00$0PECEA@@std@@@chrono@std@@1PAUCall@1@@Z
?createWithSize@SimpleBuffer@rtnet@@SA?AV?$IntrusivePtr@VSimpleBuffer@rtnet@@@auf@@I@Z
?data@SimpleBuffer@rtnet@@QAEPAXXZ
?dataBarrier@spl@@YAXXZ
?dec@RefCounter@auf@@QAEKXZ
?decodeToUtf16@spl@@YA?AV?$basic_string@_SU?$char_traits@_S@std@@V?$allocator@_S@2@@std@@PBDI@Z
?decodeUtf8@spl@@YAIPAXIPBDII@Z
?decryptWithTempKey@spl@@YA?AV?$vector@DU?$secure_allocator@D@internal@spl@@@std@@PBDI@Z
?dequeue@LockfreeQueue@auf@@QAEPAXPA_N@Z
?destroyCert@rtnet@@YAXPAUX509Cert@1@@Z
?directoryCreateRecursive@spl@@YA?AW4FileError@1@ABVPath@1@H@Z
?disconnect@StreamSocket@rtnet@@QAEXXZ
?done@ThreadRef@auf@@QBE_NXZ
?dtlsAccept@rtnet@@YAHPAUTlsSession@1@PAUTlsBuf@1@1PAX@Z
?dtlsConnect@rtnet@@YAHPAUTlsSession@1@PAUTlsBuf@1@1@Z
?dtlsCreate@rtnet@@YAPAUTlsSession@1@_NPBUX509Cert@1@@Z
?dtlsDestroy@rtnet@@YAXPAUTlsSession@1@@Z
?dtlsSrtpParametersFreeMkiBuffer@rtnet@@YAXPAUDtlsSrtpParameters@1@@Z
?dtorCore@SocketConnectOptions@rtnet@@AAEXXZ
?dtorCore@SocketOptions@rtnet@@AAEXXZ
?embedIPv4@IPv6@rtnet@@QAE_NABVIPv4@2@I@Z
?empty@LockfreeQueue@auf@@QAE_NXZ
?encode@BASE64@spl@@SAXPADPBXI@Z
?encodeUtf8@spl@@YA?AV?$basic_string@DU?$char_traits@D@std@@V?$allocator@D@2@@std@@PBXII@Z
?encodeUtf8@spl@@YAIPADIPBXII@Z
?encodedLength@BASE64@spl@@SAII@Z
?encryptWithTempKey@spl@@YA?AV?$vector@DU?$secure_allocator@D@internal@spl@@@std@@PBXI@Z
?enqueue@LockfreeQueue@auf@@QAE_NPAX@Z
?exchangeI@spl@@YAHPCHH@Z
?exchangeL@spl@@YAJPCJJ@Z
?exchangePI@spl@@YAHPCHH@Z
?fileClose@spl@@YAXPAX@Z
?fileFlush@spl@@YA_NPAX@Z
?fileOpen@spl@@YAPAXABVPath@1@W4FileSemantics@1@HAAW4FileError@1@@Z
?fileRead@spl@@YAHPAX0I@Z
?fileSeekNewReturned@spl@@YA_JPAX_JW4SeekType@1@@Z
?fileSize@spl@@YA_JPAX@Z
?fileTell@spl@@YA_JPAX@Z
?fileWrite@spl@@YAHPAXPBXI@Z
?freeMem@LockfreePacker@auf@@SAXPAX@Z
?fromBytes@IPv4@rtnet@@QAE_NPBE@Z
?g_CPUTopology@spl@@3UCPUTopology@1@A
?g_aufUp@auf@@3HA
?g_configGlobalLockfreeStackPoolSizeL2@auf@@3IA
?g_configMaxObjectWaitUs@auf@@3IA
?g_configTraceFifoSizeL2@auf@@3IA
?g_logObjectCountChanges@auf@@3DA
?g_logObjectIds@auf@@3DA
?g_logObjectIds@internal@auf@@3DA
?g_logObjectLeaks@auf@@3DA
?g_logObjectLeaks@internal@auf@@3DA
?g_nextCallId@auf@@3IC
?g_nextObjectId@auf@@3IC
?g_objectCheckDisabled@auf@@3DA
?g_sysInfo@spl@@3USysinfo@1@A
?getCertHash@rtnet@@YA_NPAUX509Cert@1@W4HashAlgorithm@spl@@PAUCertHash@1@@Z
?getDtlsSrtpParameters@rtnet@@YA_NPAUTlsSession@1@PAUDtlsSrtpParameters@1@@Z
?getImp@ThreadRef@auf@@ABEPAUSplOpaqueUpperLayerThread@@XZ
?getNat64Prefixes@rtnet@@YA_NV?$duration@_JU?$ratio@$00$0PECEA@@std@@@chrono@std@@AAV?$vector@V?$IntrusivePtr@VInterfaceAddress@rtnet@@@auf@@V?$allocator@V?$IntrusivePtr@VInterfaceAddress@rtnet@@@auf@@@std@@@4@@Z
?getSelfSignedCert@rtnet@@YAPAUX509Cert@1@PBUX509CertName@1@HHW4HashAlgorithm@spl@@PAX@Z
?globalThreadPoolTransport2@auf@@YA?AV?$IntrusivePtr@VThreadPoolTransport@auf@@@1@W4ThreadPoolPriority@spl@@@Z
?highPrecisionTimestamp@spl@@YA_KXZ
?inc@RefCounter@auf@@QAEKXZ
?initInternal@auf@@YA_NPAUAufInitTag@1@PBDII@Z
?instantiateLogComponent@internal@auf@@YAPAVLogComponent@2@PBD@Z
?intrusive_ptr_add_ref@auf@@YAXPBVIReferenceCountable@1@@Z
?intrusive_ptr_release@auf@@YAXPBVIReferenceCountable@1@@Z
?io@StreamSocket@rtnet@@QAE?AV?$IntrusivePtr@VISocketIO@rtnet@@@auf@@XZ
?isGood@Event@auf@@QBE_NXZ
?isGood@LockfreeQueue@auf@@QBE_NXZ
?isGood@LockfreeStackPool@auf@@QBE_NXZ
?isGood@MutexCore@internal@auf@@QBE_NXZ
?isGood@ThreadRef@auf@@QBE_NXZ
?localAddress@StreamSocket@rtnet@@QAE?AV?$IntrusivePtr@VAddress@rtnet@@@auf@@XZ
?localTime@spl@@YAHABUHidingSystemTime@1@PAUtm@@@Z
?localTimestamp@spl@@YA?AUHidingSystemTime@1@XZ
?lock@MutexCore@internal@auf@@QAEXXZ
?lockedByCurrentThread@MutexCore@internal@auf@@QBE_NXZ
?lockfreeStackPoolDeallocate@auf@@YAXPAX@Z
?log@LogComponent@auf@@QAEXPBXIIABVLogArgs@2@@Z
?log@LogComponent@auf@@QAEXPBXIIPBDABVLogArgs@2@@Z
?logBackTraceInfo@spl@@YAXXZ
?logFlush@auf@@YAXXZ
?logvln@auf@@YAX_NPBDPAD@Z
?make@ProxyInfo@rtnet@@SA?AV?$IntrusivePtr@VProxyInfo@rtnet@@@auf@@W4ProxyProtocol@2@PBDI11@Z
?memFree@spl@@YAXPAX@Z
?memMalloc@spl@@YAPAXI@Z
?memcpy_s@spl@@YAHPAXIPBXI@Z
?memmove_s@spl@@YAHPAXIPBXI@Z
?memset_s@spl@@YAHPCXIHI@Z
?msFromHp@spl@@YAI_J@Z
?options@StreamSocket@rtnet@@QBE?AV?$IntrusivePtr@VStreamSocketOptions@rtnet@@@auf@@XZ
?pathAppendComponent@spl@@YA_NAAVPath@1@PBD1@Z
?pathFromFilename@spl@@YA_NAAVPath@1@PBD@Z
?pathInitFromLocation@spl@@YA?AW4FileError@1@AAVPath@1@ABUPathLocation@1@@Z
?pathStringValue@spl@@YAPBDABVPath@1@@Z
?peerAddress@StreamSocket@rtnet@@QAE?AV?$IntrusivePtr@VAddress@rtnet@@@auf@@XZ
?port@Address@rtnet@@QBEHXZ
?post@Event@auf@@QAEXXZ
?prefixLength@InterfaceAddress@rtnet@@QBEIXZ
?raise@Flag@auf@@QAE_NXZ
?randomBytes@auf@@YA_NPAXI@Z
?randomUInt@XorshiftRNG@auf@@QAEIXZ
?release@Flag@auf@@QAEXXZ
?setDone@ThreadRef@auf@@QAEX_N@Z
?setLogComponentDescription@internal@auf@@YAPBDPBD0@Z
?setLogComponentSafe@internal@auf@@YA_NPBD_N@Z
?setNoDelayEnabled@StreamSocketOptions@rtnet@@QAEX_N@Z
?setOptions@StreamSocket@rtnet@@QAE_NABV?$IntrusivePtr@VStreamSocketOptions@rtnet@@@auf@@@Z
?setPortSpecification@SocketConnectOptions@rtnet@@QAEXABV?$shared_ptr@VPortSpecification@rtnet@@@std@@@Z
?setProxy@SocketConnectOptions@rtnet@@QAEXW4ProxyPolicy@2@ABV?$IntrusivePtr@VProxyInfo@rtnet@@@auf@@@Z
?setQualityOfServiceDSCP@SocketOptions@rtnet@@QAEXI@Z
?setTlsCertificateVerification@SocketOptions@rtnet@@QAEX_N@Z
?size@SimpleBuffer@rtnet@@QBEIXZ
?sleep@spl@@YAXI@Z
?snprintf_s@spl@@YAHPADIPBDZZ
?startImp@auf@@YAXPAUSplOpaqueUpperLayerThread@@PAUVarBase@spl@@@Z
?startTlsAsync@StreamSocket@rtnet@@QAEXPBDPAUAsyncTag@auf@@@Z
?stop@ThreadRef@auf@@QAE_NV?$duration@_JU?$ratio@$00$0PECEA@@std@@@chrono@std@@PAH@Z
?stopInternal@auf@@YAXPAUAufInitTag@1@PBD@Z
?strandId@ThreadPoolTransport@auf@@QBEIXZ
?strcat_s@spl@@YAHPADIPBD@Z
?strcpy_s@spl@@YAHPADIPBD@Z
?strlcpy@spl@@YAIPADPBDI@Z
?strnlen_s@spl@@YAIPBDI@Z
?symbolFromAddress@priv@spl@@YA_NPBXPADI@Z
?sysInfoCPUInfo@spl@@YAXIAAUCPUInfo@1@@Z
?thread@pal@msrtc@@YA?AV0std@@$$QAV?$function@$$A6AXXZ@3@@Z
?tlsBufAlloc@rtnet@@YA_NPAUTlsBuf@1@K@Z
?tlsBufFree@rtnet@@YAXPAUTlsBuf@1@@Z
?tlsBufInit@rtnet@@YAXPAUTlsBuf@1@@Z
?tlsGetPeerCert@rtnet@@YAPAUX509Cert@1@PAUTlsSession@1@@Z
?unlock@MutexCore@internal@auf@@QAEXXZ
?utcHpTimestamp@spl@@YA_KXZ
?utcTimestamp@spl@@YAHXZ
?vsnprintf_s@spl@@YAHPADIPBD0@Z
?wait@Event@auf@@QAE_NI@Z
?wait@Event@auf@@QAE_NV?$duration@_JU?$ratio@$00$0PECEA@@std@@@chrono@std@@@Z
?wait@Flag@auf@@QAE_NV?$duration@_JU?$ratio@$00$0PECEA@@std@@@chrono@std@@@Z
?weak_intrusive_ptr_add_ref@auf@@YAXPAVWeakAuxiliary@1@@Z
?weak_intrusive_ptr_create@auf@@YAPAVWeakAuxiliary@1@PBVIReferenceCountable@1@@Z
?weak_intrusive_ptr_release@auf@@YAXPAVWeakAuxiliary@1@@Z
?x509NameDestroy@rtnet@@YAXPAUX509CertName@1@@Z
?x509NameEncode@rtnet@@YAPAUX509CertName@1@PBD@Z
AcquireCredentialsHandleW
AcquireSRWLockExclusive
CreateFileA
CreateFileW
DecodePointer
DeleteSecurityContext
DisableThreadLibraryCalls
EnableTrace
EncodePointer
EnumerateSecurityPackagesW
EventRegister
EventUnregister
EventWrite
FreeAddrInfoW
FreeContextBuffer
FreeCredentialsHandle
GetAddrInfoW
GetLastError
GetSystemInfo
GetTempPathW
GetTraceEnableFlags
GetTraceEnableLevel
GetTraceLoggerHandle
GetVersionExW
InitializeSListHead
InitializeSecurityContextW
InterlockedCompareExchange
InterlockedDecrement
InterlockedExchange
InterlockedExchangeAdd
InterlockedIncrement
InterlockedPopEntrySList
InterlockedPushEntrySList
IsDebuggerPresent
MultiByteToWideChar
OutputDebugStringA
OutputDebugStringW
QueryPerformanceCounter
QueryPerformanceFrequency
RaiseException
RegCloseKey
RegCreateKeyExA
RegCreateKeyExW
RegDeleteKeyW
RegEnumKeyExW
RegOpenKeyExA
RegOpenKeyExW
RegQueryValueExA
RegQueryValueExW
RegSetValueExA
RegSetValueExW
RegisterTraceGuidsW
ReleaseSRWLockExclusive
RtcPalAccept
RtcPalAcquireSlimLock
RtcPalAesEncrypt
RtcPalAllocAlignedMemoryWithTag
RtcPalAllocMemoryWithTag
RtcPalAllocateWorkItem
RtcPalBaseCleanup
RtcPalBaseStartup
RtcPalBind
RtcPalCleanup
RtcPalClearAssertRecords
RtcPalCloseSocket
RtcPalCloseSocketIOCP
RtcPalCloseWaitableHandle
RtcPalCoWaitForAnyObject
RtcPalConnect
RtcPalConnectToHostname
RtcPalCreateCallContext
RtcPalCreateEvent
RtcPalCreateSemaphore
RtcPalCreateSocket
RtcPalCreateSocketIOCP
RtcPalCreateThread
RtcPalCryptCleanup
RtcPalCryptGenRandom
RtcPalCryptHMACSHA1Create
RtcPalCryptHMACSHA1CreateKey
RtcPalCryptHMACSHA1Destroy
RtcPalCryptHMACSHA1DestroyKey
RtcPalCryptHMACSHA1DupeContext
RtcPalCryptHMACSHA1Final
RtcPalCryptHMACSHA1Update
RtcPalCryptHMACSHA256Create
RtcPalCryptHMACSHA256CreateKey
RtcPalCryptHMACSHA256Destroy
RtcPalCryptHMACSHA256DestroyKey
RtcPalCryptHMACSHA256DupeContext
RtcPalCryptHMACSHA256Final
RtcPalCryptHMACSHA256Update
RtcPalCryptMD5Create
RtcPalCryptMD5Destroy
RtcPalCryptMD5Final
RtcPalCryptMD5Update
RtcPalCryptStartup
RtcPalDeinitTracing
RtcPalDeleteSlimLock
RtcPalDestroyAesKey
RtcPalDeviceAudioGetGlitchInfo
RtcPalDeviceAudioGetMetrics
RtcPalDeviceAudioGetProcessingFeatures
RtcPalDeviceAudioGetQueuedBytes
RtcPalDeviceAudioGetSupportedProcessingCapacity
RtcPalDeviceAudioLockBuffer
RtcPalDeviceAudioReset
RtcPalDeviceAudioSetActiveEndpoint
RtcPalDeviceAudioSetProcessingFeatures
RtcPalDeviceAudioStart
RtcPalDeviceAudioStop
RtcPalDeviceAudioUnlockBuffer
RtcPalDeviceErrorCodeFromHResult
RtcPalDeviceIsErrorCodeRecoverable
RtcPalDevicePlatformClose
RtcPalDevicePlatformCloseDevice
RtcPalDevicePlatformCloseHIDContext
RtcPalDevicePlatformCompareDeviceId
RtcPalDevicePlatformCreateDeviceId
RtcPalDevicePlatformDeviceRegisterNotification
RtcPalDevicePlatformDisposeDeviceId
RtcPalDevicePlatformDuplicateDeviceId
RtcPalDevicePlatformEnableAudio
RtcPalDevicePlatformEnumDevices
RtcPalDevicePlatformGetAudioCertifiedListId
RtcPalDevicePlatformGetAutoBoostControlEnabled
RtcPalDevicePlatformGetDeviceList
RtcPalDevicePlatformGetHIDInformation
RtcPalDevicePlatformGetMediaExtension
RtcPalDevicePlatformGetVolumeInfo
RtcPalDevicePlatformGetVolumeInfoByDeviceHandle
RtcPalDevicePlatformIsSamePhysicalDevice
RtcPalDevicePlatformOpen
RtcPalDevicePlatformOpenAudioDevice
RtcPalDevicePlatformOpenAudioLoopbackDevice
RtcPalDevicePlatformOpenHIDContext
RtcPalDevicePlatformRegisterNotification
RtcPalDevicePlatformSetAutoBoostControlEnabled
RtcPalDevicePlatformSetHIDInformation
RtcPalDevicePlatformSetState
RtcPalDevicePlatformSetVolumeInfo
RtcPalDevicePlatformUnregisterNotification
RtcPalEnableCallContextTracingControl
RtcPalEnableEtwTracing
RtcPalEnableRDTSCTime
RtcPalEnableTracing
RtcPalFlushTracing
RtcPalFreeIfAddrs
RtcPalFreeMemoryWithTag
RtcPalFreeWorkItem
RtcPalGetADSPConfig
RtcPalGetADSPLogFolder
RtcPalGetAllEcsSettings
RtcPalGetAssertRecords
RtcPalGetBestSourceAddress
RtcPalGetComputerNameW
RtcPalGetDataConvSignature
RtcPalGetEcsSetting
RtcPalGetExitCodeThread
RtcPalGetFipsComplianceMode
RtcPalGetHostCName
RtcPalGetIfAddrs
RtcPalGetLastError
RtcPalGetLocalStateFolderW
RtcPalGetMachineInfo
RtcPalGetOSName
RtcPalGetPeerName
RtcPalGetPlatformProfile
RtcPalGetPrivateMemoryUsageInMB
RtcPalGetSockName
RtcPalGetSocketIOCPQueuedCompletionStatus
RtcPalGetSystemConfigurationInfo
RtcPalGetSystemMetricsTemplate
RtcPalGetTimeDouble
RtcPalGetTimeLongIn100ns
RtcPalGetTimeLongIn100nsFast
RtcPalGetTracingPath
RtcPalGetUserName
RtcPalGetWinSATVideoEncodeScore
RtcPalInitCollectSystemMetrics
RtcPalInitThreadAttr
RtcPalInitTracing
RtcPalInitializeCriticalSection
RtcPalInitializeCriticalSectionAndSpinCount
RtcPalInitializeSlimLock
RtcPalIsAssertTraceEnabled
RtcPalIsAutomaticProxyTraversalSupported
RtcPalIsCallContextTracingControlEnabled
RtcPalIsEtwTracingEnabled
RtcPalIsLaptop
RtcPalIsTracingEnabled
RtcPalListen
RtcPalLoadLibrary
RtcPalLoadSystem32Library
RtcPalMFHasDXGI
RtcPalMFHasSourceReader
RtcPalNetAddressToStringA
RtcPalNetAddressToStringW
RtcPalNetCleanup
RtcPalNetStartup
RtcPalNetStringToIPAddressA
RtcPalNetStringToIPAddressW
RtcPalNetStringToIPv4AddressA
RtcPalNetStringToIPv4AddressW
RtcPalNetStringToIPv6AddressA
RtcPalNetStringToIPv6AddressW
RtcPalPerfCounterToNanoseconds
RtcPalPerfCounterToSeconds
RtcPalPopulateNetworkInterfaceIdForTraceLoggingEvent
RtcPalPostSocketIOCPQueuedCompletionStatus
RtcPalQueryPerformanceCounter
RtcPalQueueWorkItem
RtcPalRecv
RtcPalRecvFrom
RtcPalRefreshMemoryTrackerCallStack
RtcPalRegCloseKey
RtcPalRegCreateKeyExA
RtcPalRegCreateKeyExW
RtcPalRegDeleteKeyW
RtcPalRegOpenKeyExA
RtcPalRegOpenKeyExW
RtcPalRegQueryValueExA
RtcPalRegQueryValueExW
RtcPalRegSetValueExA
RtcPalRegSetValueExW
RtcPalRegisterSocket
RtcPalRegisterTraceGuids
RtcPalReleaseSemaphore
RtcPalReleaseSlimLock
RtcPalReportAssert
RtcPalResetAllEcsSettings
RtcPalResetEvent
RtcPalSecureZeroMemory
RtcPalSend
RtcPalSendTo
RtcPalSetAesKey
RtcPalSetEcsSetting
RtcPalSetEcsSettingById
RtcPalSetEvent
RtcPalSetLastError
RtcPalSetLogPath
RtcPalSetPlatformProfile
RtcPalSetSchedulerPolicy
RtcPalSocketEnableLowLatency
RtcPalSocketSetBroadcast
RtcPalSocketSetLinger
RtcPalSocketSetNonBlockingMode
RtcPalSocketSetQoSDSCP
RtcPalSocketSetRecvBufSize
RtcPalSocketSetSendBufSize
RtcPalSocketSetTcpNoDelay
RtcPalStartCollectSystemMetrics
RtcPalStartup
RtcPalStopCollectSystemMetrics
RtcPalTaskQueueCreate
RtcPalTaskQueueDequeue
RtcPalTaskQueueDestroy
RtcPalTaskQueueEnqueue
RtcPalTraceCondIfTrue
RtcPalTraceLoggingWrite
RtcPalTraceRt
RtcPalTryAcquireSlimLock
RtcPalUninitCollectSystemMetrics
RtcPalWaitAndCancelPendingCallback
RtcPalWaitForAllThreads
RtcPalWaitForAnyObject
RtcPalWaitForSingleObject
RtcPalWlanEnterMediaStreamingMode
RtcPalWlanLeaveMediaStreamingMode
SetLastError
TraceMessage
UnregisterTraceGuids
WideCharToMultiByte
__imp_?PL_TEMP_DIR@spl@@3UPathLocation@1@A
aufLogHookInstall
aufLogHookRemove
auf_internal_log
auf_internal_log_obfuscated
auf_logcomponent_isenabled
g_aufLogChannel
g_aufLogNumHooks
lstrcmpW
lstrcmpiW
lstrlenA
lstrlenW
rtcpal_freeaddrinfo
rtcpal_getaddrinfo
rtcpal_inet_addr
rtcpal_inet_ntoa
rtcpal_recv
rtcpal_recvfrom
rtcpal_send
rtcpal_sendto
spl_pii_OmitS
spl_pii_OmitW
spl_pii_UserIdW
threadCurrentId
threadYield
